CCS PCM C Compiler, Version 5.026, 18875               28-nov-17 12:30

               Filename:   C:\Users\User\Desktop\Week9_2\main.lst

               ROM used:   1654 words (21%)
                           Largest free fragment is 2048
               RAM used:   10 (3%) at main() level
                           38 (11%) worst case
               Stack used: 2 locations
               Stack size: 7

*
0000:  NOP
0001:  MOVLW  06
0002:  MOVWF  0A
0003:  GOTO   62F
....................  
.................... /* 
.................... #include <main.h> 
.................... //#include "lcd16216.c" 
....................  
.................... #define PWM_PERIOD_VAL 199   //250   // Calculated 
.................... #define PWM_DUTY_MIN 0 
.................... #define PWM_DUTY_MAX 800 //change 
....................  
.................... int pwm_count = 0; 
.................... int servo_angle = 0; 
....................  
....................  
.................... #int_ccp1 
.................... void ccp1_int(){ 
.................... //   output_toggle(PIN_D0); 
....................     
....................    if(pwm_count++ == 200){ 
....................       pwm_count = 0; 
....................    } 
....................     
....................    if(pwm_count <= 19){ //servo_angle 
....................       output_high(PIN_D0);       
....................    }else{ 
....................       output_low(PIN_D0); 
....................    }  
.................... } 
....................  
....................  
.................... void main() 
.................... { 
....................     
....................  
....................    setup_oscillator(OSC_8MHZ,2); 
....................    CCP_1 = 25; 
....................    setup_ccp1(CCP_COMPARE_RESET_TIMER|CCP_COMPARE_INT); 
.................... //   setup_ccp1(CCP_COMPARE_RESET_TIMER);  
.................... //   setup_ccp1(CCP_COMPARE_INT);  
....................    setup_timer_1(T1_INTERNAL|T1_DIV_BY_8); 
....................     
....................    enable_interrupts(INT_CCP1); 
....................    enable_interrupts(GLOBAL); 
....................  
....................    while(TRUE){ 
....................        
....................       while(servo_angle < 19){ 
....................          servo_angle++; 
....................          delay_ms(50); 
....................       } 
....................       while(servo_angle > 9){ 
....................          servo_angle--; 
....................          delay_ms(50); 
....................       } 
....................    } 
....................  
....................     
....................     
....................     
....................     
....................    while(1){ 
....................     
....................    } 
....................     
....................     
.................... } 
.................... */ 
....................  
....................  
....................  
....................  
.................... #include <main.h> 
.................... #include <16F887.h> 
.................... //////////// Standard Header file for the PIC16F887 device //////////////// 
.................... /////////////////////////////////////////////////////////////////////////// 
.................... ////        (C) Copyright 1996, 2014 Custom Computer Services          //// 
.................... //// This source code may only be used by licensed users of the CCS C  //// 
.................... //// compiler.  This source code may only be distributed to other      //// 
.................... //// licensed users of the CCS C compiler.  No other use, reproduction //// 
.................... //// or distribution is permitted without written permission.          //// 
.................... //// Derivative programs created using this software in object code    //// 
.................... //// form are not restricted in any way.                               //// 
.................... /////////////////////////////////////////////////////////////////////////// 
.................... #device PIC16F887 
0004:  DATA E9,29
0005:  DATA 65,37
0006:  DATA F3,37
0007:  DATA 72,29
0008:  DATA E5,30
0009:  DATA 64,1D
000A:  DATA A0,12
000B:  DATA CC,3A
000C:  DATA A0,04
000D:  DATA A0,34
000E:  DATA 6E,10
000F:  DATA F6,37
0010:  DATA 6C,3A
0011:  DATA 3A,10
0012:  DATA 25,33
0013:  DATA A0,04
0014:  DATA 09,00
0015:  DATA CC,37
0016:  DATA EE,33
0017:  DATA 20,39
0018:  DATA 61,37
0019:  DATA E7,32
001A:  DATA 20,39
001B:  DATA E5,30
001C:  DATA 64,1D
001D:  DATA A0,12
001E:  DATA 66,05
001F:  DATA 00,00
*
0045:  MOVLW  8E
0046:  MOVWF  77
0047:  MOVF   24,W
0048:  MOVWF  78
0049:  MOVF   23,W
004A:  MOVWF  79
004B:  CLRF   7A
004C:  MOVF   78,F
004D:  BTFSS  03.2
004E:  GOTO   059
004F:  MOVF   79,W
0050:  MOVWF  78
0051:  CLRF   79
0052:  MOVLW  08
0053:  SUBWF  77,F
0054:  MOVF   78,F
0055:  BTFSS  03.2
0056:  GOTO   059
0057:  CLRF   77
0058:  GOTO   061
0059:  BCF    03.0
005A:  BTFSC  78.7
005B:  GOTO   060
005C:  RLF    79,F
005D:  RLF    78,F
005E:  DECF   77,F
005F:  GOTO   059
0060:  BCF    78.7
0061:  RETURN
0062:  MOVF   34,W
0063:  BTFSC  03.2
0064:  GOTO   0D2
0065:  MOVWF  3C
0066:  MOVF   38,W
0067:  BTFSC  03.2
0068:  GOTO   0D2
0069:  ADDWF  3C,F
006A:  BTFSC  03.0
006B:  GOTO   073
006C:  MOVLW  7F
006D:  SUBWF  3C,F
006E:  BTFSS  03.0
006F:  GOTO   0D2
0070:  BTFSC  03.2
0071:  GOTO   0D2
0072:  GOTO   077
0073:  MOVLW  81
0074:  ADDWF  3C,F
0075:  BTFSC  03.0
0076:  GOTO   0D2
0077:  MOVF   3C,W
0078:  MOVWF  77
0079:  CLRF   78
007A:  CLRF   79
007B:  CLRF   7A
007C:  MOVF   35,W
007D:  MOVWF  40
007E:  BSF    40.7
007F:  MOVF   36,W
0080:  MOVWF  3F
0081:  MOVF   37,W
0082:  MOVWF  3E
0083:  MOVLW  18
0084:  MOVWF  3C
0085:  CLRF   3D
0086:  BTFSS  3E.0
0087:  GOTO   0A0
0088:  MOVF   3B,W
0089:  ADDWF  7A,F
008A:  BTFSS  03.0
008B:  GOTO   092
008C:  INCF   79,F
008D:  BTFSS  03.2
008E:  GOTO   092
008F:  INCF   78,F
0090:  BTFSC  03.2
0091:  BSF    3D.7
0092:  MOVF   3A,W
0093:  ADDWF  79,F
0094:  BTFSS  03.0
0095:  GOTO   099
0096:  INCF   78,F
0097:  BTFSC  03.2
0098:  BSF    3D.7
0099:  MOVF   39,W
009A:  MOVWF  36
009B:  BSF    36.7
009C:  MOVF   36,W
009D:  ADDWF  78,F
009E:  BTFSC  03.0
009F:  BSF    3D.7
00A0:  RLF    3D,F
00A1:  RRF    78,F
00A2:  RRF    79,F
00A3:  RRF    7A,F
00A4:  RRF    40,F
00A5:  RRF    3F,F
00A6:  RRF    3E,F
00A7:  BCF    03.0
00A8:  DECFSZ 3C,F
00A9:  GOTO   085
00AA:  MOVLW  01
00AB:  ADDWF  77,F
00AC:  BTFSC  03.0
00AD:  GOTO   0D2
00AE:  BTFSC  78.7
00AF:  GOTO   0B7
00B0:  RLF    40,F
00B1:  RLF    7A,F
00B2:  RLF    79,F
00B3:  RLF    78,F
00B4:  DECF   77,F
00B5:  BTFSC  03.2
00B6:  GOTO   0D2
00B7:  BTFSS  40.7
00B8:  GOTO   0C8
00B9:  INCF   7A,F
00BA:  BTFSS  03.2
00BB:  GOTO   0C8
00BC:  INCF   79,F
00BD:  BTFSS  03.2
00BE:  GOTO   0C8
00BF:  INCF   78,F
00C0:  BTFSS  03.2
00C1:  GOTO   0C8
00C2:  RRF    78,F
00C3:  RRF    79,F
00C4:  RRF    7A,F
00C5:  INCF   77,F
00C6:  BTFSC  03.2
00C7:  GOTO   0D2
00C8:  MOVF   35,W
00C9:  MOVWF  3D
00CA:  MOVF   39,W
00CB:  XORWF  3D,F
00CC:  BTFSS  3D.7
00CD:  GOTO   0D0
00CE:  BSF    78.7
00CF:  GOTO   0D6
00D0:  BCF    78.7
00D1:  GOTO   0D6
00D2:  CLRF   77
00D3:  CLRF   78
00D4:  CLRF   79
00D5:  CLRF   7A
00D6:  RETURN
00D7:  MOVF   27,W
00D8:  BTFSC  03.2
00D9:  GOTO   19C
00DA:  MOVWF  33
00DB:  MOVF   2B,W
00DC:  BTFSC  03.2
00DD:  GOTO   19C
00DE:  SUBWF  33,F
00DF:  BTFSS  03.0
00E0:  GOTO   0E6
00E1:  MOVLW  7F
00E2:  ADDWF  33,F
00E3:  BTFSC  03.0
00E4:  GOTO   19C
00E5:  GOTO   0EC
00E6:  MOVLW  81
00E7:  SUBWF  33,F
00E8:  BTFSS  03.0
00E9:  GOTO   19C
00EA:  BTFSC  03.2
00EB:  GOTO   19C
00EC:  MOVF   33,W
00ED:  MOVWF  77
00EE:  CLRF   78
00EF:  CLRF   79
00F0:  CLRF   7A
00F1:  CLRF   32
00F2:  MOVF   28,W
00F3:  MOVWF  31
00F4:  BSF    31.7
00F5:  MOVF   29,W
00F6:  MOVWF  30
00F7:  MOVF   2A,W
00F8:  MOVWF  2F
00F9:  MOVLW  19
00FA:  MOVWF  33
00FB:  MOVF   2E,W
00FC:  SUBWF  2F,F
00FD:  BTFSC  03.0
00FE:  GOTO   10F
00FF:  MOVLW  01
0100:  SUBWF  30,F
0101:  BTFSC  03.0
0102:  GOTO   10F
0103:  SUBWF  31,F
0104:  BTFSC  03.0
0105:  GOTO   10F
0106:  SUBWF  32,F
0107:  BTFSC  03.0
0108:  GOTO   10F
0109:  INCF   32,F
010A:  INCF   31,F
010B:  INCF   30,F
010C:  MOVF   2E,W
010D:  ADDWF  2F,F
010E:  GOTO   141
010F:  MOVF   2D,W
0110:  SUBWF  30,F
0111:  BTFSC  03.0
0112:  GOTO   12A
0113:  MOVLW  01
0114:  SUBWF  31,F
0115:  BTFSC  03.0
0116:  GOTO   12A
0117:  SUBWF  32,F
0118:  BTFSC  03.0
0119:  GOTO   12A
011A:  INCF   32,F
011B:  INCF   31,F
011C:  MOVF   2D,W
011D:  ADDWF  30,F
011E:  MOVF   2E,W
011F:  ADDWF  2F,F
0120:  BTFSS  03.0
0121:  GOTO   141
0122:  INCF   30,F
0123:  BTFSS  03.2
0124:  GOTO   141
0125:  INCF   31,F
0126:  BTFSS  03.2
0127:  GOTO   141
0128:  INCF   32,F
0129:  GOTO   141
012A:  MOVF   2C,W
012B:  IORLW  80
012C:  SUBWF  31,F
012D:  BTFSC  03.0
012E:  GOTO   140
012F:  MOVLW  01
0130:  SUBWF  32,F
0131:  BTFSC  03.0
0132:  GOTO   140
0133:  INCF   32,F
0134:  MOVF   2C,W
0135:  IORLW  80
0136:  ADDWF  31,F
0137:  MOVF   2D,W
0138:  ADDWF  30,F
0139:  BTFSS  03.0
013A:  GOTO   11E
013B:  INCF   31,F
013C:  BTFSS  03.2
013D:  GOTO   11E
013E:  INCF   32,F
013F:  GOTO   11E
0140:  BSF    7A.0
0141:  DECFSZ 33,F
0142:  GOTO   144
0143:  GOTO   14F
0144:  BCF    03.0
0145:  RLF    2F,F
0146:  RLF    30,F
0147:  RLF    31,F
0148:  RLF    32,F
0149:  BCF    03.0
014A:  RLF    7A,F
014B:  RLF    79,F
014C:  RLF    78,F
014D:  RLF    34,F
014E:  GOTO   0FB
014F:  BTFSS  34.0
0150:  GOTO   157
0151:  BCF    03.0
0152:  RRF    78,F
0153:  RRF    79,F
0154:  RRF    7A,F
0155:  RRF    34,F
0156:  GOTO   15A
0157:  DECF   77,F
0158:  BTFSC  03.2
0159:  GOTO   19C
015A:  BTFSC  34.7
015B:  GOTO   183
015C:  BCF    03.0
015D:  RLF    2F,F
015E:  RLF    30,F
015F:  RLF    31,F
0160:  RLF    32,F
0161:  MOVF   2E,W
0162:  SUBWF  2F,F
0163:  BTFSC  03.0
0164:  GOTO   16F
0165:  MOVLW  01
0166:  SUBWF  30,F
0167:  BTFSC  03.0
0168:  GOTO   16F
0169:  SUBWF  31,F
016A:  BTFSC  03.0
016B:  GOTO   16F
016C:  SUBWF  32,F
016D:  BTFSS  03.0
016E:  GOTO   192
016F:  MOVF   2D,W
0170:  SUBWF  30,F
0171:  BTFSC  03.0
0172:  GOTO   17A
0173:  MOVLW  01
0174:  SUBWF  31,F
0175:  BTFSC  03.0
0176:  GOTO   17A
0177:  SUBWF  32,F
0178:  BTFSS  03.0
0179:  GOTO   192
017A:  MOVF   2C,W
017B:  IORLW  80
017C:  SUBWF  31,F
017D:  BTFSC  03.0
017E:  GOTO   183
017F:  MOVLW  01
0180:  SUBWF  32,F
0181:  BTFSS  03.0
0182:  GOTO   192
0183:  INCF   7A,F
0184:  BTFSS  03.2
0185:  GOTO   192
0186:  INCF   79,F
0187:  BTFSS  03.2
0188:  GOTO   192
0189:  INCF   78,F
018A:  BTFSS  03.2
018B:  GOTO   192
018C:  INCF   77,F
018D:  BTFSC  03.2
018E:  GOTO   19C
018F:  RRF    78,F
0190:  RRF    79,F
0191:  RRF    7A,F
0192:  MOVF   28,W
0193:  MOVWF  33
0194:  MOVF   2C,W
0195:  XORWF  33,F
0196:  BTFSS  33.7
0197:  GOTO   19A
0198:  BSF    78.7
0199:  GOTO   1A0
019A:  BCF    78.7
019B:  GOTO   1A0
019C:  CLRF   77
019D:  CLRF   78
019E:  CLRF   79
019F:  CLRF   7A
01A0:  RETURN
*
01CA:  MOVF   0B,W
01CB:  MOVWF  28
01CC:  BCF    0B.7
01CD:  BSF    03.5
01CE:  BSF    03.6
01CF:  BSF    0C.7
01D0:  BSF    0C.0
01D1:  NOP
01D2:  NOP
01D3:  BCF    03.5
01D4:  BCF    03.6
01D5:  BTFSC  28.7
01D6:  BSF    0B.7
01D7:  BTFSC  03.0
01D8:  GOTO   201
01D9:  BSF    03.6
01DA:  MOVF   0C,W
01DB:  ANDLW  7F
01DC:  BCF    03.6
01DD:  MOVWF  28
01DE:  BSF    03.6
01DF:  MOVF   0D,W
01E0:  BCF    03.6
01E1:  MOVWF  29
01E2:  BSF    03.6
01E3:  MOVF   0F,W
01E4:  BCF    03.6
01E5:  MOVWF  2A
01E6:  MOVF   28,W
01E7:  MOVWF  34
01E8:  CALL   1A1
01E9:  MOVF   29,W
01EA:  BSF    03.6
01EB:  MOVWF  0D
01EC:  BCF    03.6
01ED:  MOVF   2A,W
01EE:  BSF    03.6
01EF:  MOVWF  0F
01F0:  BCF    03.6
01F1:  MOVF   0B,W
01F2:  MOVWF  2B
01F3:  BCF    0B.7
01F4:  BSF    03.5
01F5:  BSF    03.6
01F6:  BSF    0C.7
01F7:  BSF    0C.0
01F8:  NOP
01F9:  NOP
01FA:  BCF    03.5
01FB:  BCF    03.6
01FC:  BTFSC  2B.7
01FD:  BSF    0B.7
01FE:  DECFSZ 27,F
01FF:  GOTO   201
0200:  GOTO   220
0201:  BSF    03.6
0202:  RLF    0C,W
0203:  RLF    0E,W
0204:  ANDLW  7F
0205:  BCF    03.6
0206:  MOVWF  28
0207:  BSF    03.6
0208:  MOVF   0D,W
0209:  BCF    03.6
020A:  MOVWF  29
020B:  BSF    03.6
020C:  MOVF   0F,W
020D:  BCF    03.6
020E:  MOVWF  2A
020F:  MOVF   28,W
0210:  MOVWF  34
0211:  CALL   1A1
0212:  MOVF   29,W
0213:  BSF    03.6
0214:  MOVWF  0D
0215:  BCF    03.6
0216:  MOVF   2A,W
0217:  BSF    03.6
0218:  MOVWF  0F
0219:  INCF   0D,F
021A:  BTFSC  03.2
021B:  INCF   0F,F
021C:  BCF    03.0
021D:  BCF    03.6
021E:  DECFSZ 27,F
021F:  GOTO   1CA
0220:  RETURN
0221:  BTFSC  03.1
0222:  GOTO   226
0223:  MOVLW  3C
0224:  MOVWF  04
0225:  BCF    03.7
0226:  CLRF   77
0227:  CLRF   78
0228:  CLRF   79
0229:  CLRF   7A
022A:  CLRF   3C
022B:  CLRF   3D
022C:  CLRF   3E
022D:  CLRF   3F
022E:  MOVF   3B,W
022F:  IORWF  3A,W
0230:  IORWF  39,W
0231:  IORWF  38,W
0232:  BTFSC  03.2
0233:  GOTO   264
0234:  MOVLW  20
0235:  MOVWF  40
0236:  BCF    03.0
0237:  RLF    34,F
0238:  RLF    35,F
0239:  RLF    36,F
023A:  RLF    37,F
023B:  RLF    3C,F
023C:  RLF    3D,F
023D:  RLF    3E,F
023E:  RLF    3F,F
023F:  MOVF   3B,W
0240:  SUBWF  3F,W
0241:  BTFSS  03.2
0242:  GOTO   24D
0243:  MOVF   3A,W
0244:  SUBWF  3E,W
0245:  BTFSS  03.2
0246:  GOTO   24D
0247:  MOVF   39,W
0248:  SUBWF  3D,W
0249:  BTFSS  03.2
024A:  GOTO   24D
024B:  MOVF   38,W
024C:  SUBWF  3C,W
024D:  BTFSS  03.0
024E:  GOTO   25E
024F:  MOVF   38,W
0250:  SUBWF  3C,F
0251:  MOVF   39,W
0252:  BTFSS  03.0
0253:  INCFSZ 39,W
0254:  SUBWF  3D,F
0255:  MOVF   3A,W
0256:  BTFSS  03.0
0257:  INCFSZ 3A,W
0258:  SUBWF  3E,F
0259:  MOVF   3B,W
025A:  BTFSS  03.0
025B:  INCFSZ 3B,W
025C:  SUBWF  3F,F
025D:  BSF    03.0
025E:  RLF    77,F
025F:  RLF    78,F
0260:  RLF    79,F
0261:  RLF    7A,F
0262:  DECFSZ 40,F
0263:  GOTO   236
0264:  MOVF   3C,W
0265:  MOVWF  00
0266:  INCF   04,F
0267:  MOVF   3D,W
0268:  MOVWF  00
0269:  INCF   04,F
026A:  MOVF   3E,W
026B:  MOVWF  00
026C:  INCF   04,F
026D:  MOVF   3F,W
026E:  MOVWF  00
026F:  RETURN
0270:  MOVF   04,W
0271:  MOVWF  2C
0272:  MOVF   2B,W
0273:  MOVWF  2E
0274:  BTFSC  03.2
0275:  GOTO   28F
0276:  MOVF   2A,W
0277:  MOVWF  37
0278:  MOVF   29,W
0279:  MOVWF  36
027A:  MOVF   28,W
027B:  MOVWF  35
027C:  MOVF   27,W
027D:  MOVWF  34
027E:  CLRF   3B
027F:  CLRF   3A
0280:  MOVLW  20
0281:  MOVWF  39
0282:  MOVLW  82
0283:  MOVWF  38
0284:  CALL   062
0285:  MOVF   7A,W
0286:  MOVWF  2A
0287:  MOVF   79,W
0288:  MOVWF  29
0289:  MOVF   78,W
028A:  MOVWF  28
028B:  MOVF   77,W
028C:  MOVWF  27
028D:  DECFSZ 2E,F
028E:  GOTO   276
028F:  MOVF   2A,W
0290:  MOVWF  37
0291:  MOVF   29,W
0292:  MOVWF  36
0293:  MOVF   28,W
0294:  MOVWF  35
0295:  MOVF   27,W
0296:  MOVWF  34
0297:  MOVF   34,W
0298:  SUBLW  B6
0299:  MOVWF  34
029A:  CLRF   7A
029B:  MOVF   35,W
029C:  MOVWF  38
029D:  BSF    35.7
029E:  BCF    03.0
029F:  RRF    35,F
02A0:  RRF    36,F
02A1:  RRF    37,F
02A2:  RRF    7A,F
02A3:  RRF    79,F
02A4:  RRF    78,F
02A5:  RRF    77,F
02A6:  DECFSZ 34,F
02A7:  GOTO   29E
02A8:  BTFSS  38.7
02A9:  GOTO   2B5
02AA:  COMF   77,F
02AB:  COMF   78,F
02AC:  COMF   79,F
02AD:  COMF   7A,F
02AE:  INCF   77,F
02AF:  BTFSC  03.2
02B0:  INCF   78,F
02B1:  BTFSC  03.2
02B2:  INCF   79,F
02B3:  BTFSC  03.2
02B4:  INCF   7A,F
02B5:  MOVF   7A,W
02B6:  MOVWF  2A
02B7:  MOVF   79,W
02B8:  MOVWF  29
02B9:  MOVF   78,W
02BA:  MOVWF  28
02BB:  MOVF   77,W
02BC:  MOVWF  27
02BD:  BTFSS  2A.7
02BE:  GOTO   2CC
02BF:  DECF   2C,F
02C0:  BSF    2C.5
02C1:  COMF   27,F
02C2:  COMF   28,F
02C3:  COMF   29,F
02C4:  COMF   2A,F
02C5:  INCF   27,F
02C6:  BTFSC  03.2
02C7:  INCF   28,F
02C8:  BTFSC  03.2
02C9:  INCF   29,F
02CA:  BTFSC  03.2
02CB:  INCF   2A,F
02CC:  MOVLW  3B
02CD:  MOVWF  33
02CE:  MOVLW  9A
02CF:  MOVWF  32
02D0:  MOVLW  CA
02D1:  MOVWF  31
02D2:  CLRF   30
02D3:  MOVLW  0A
02D4:  MOVWF  2E
02D5:  MOVF   2B,W
02D6:  BTFSC  03.2
02D7:  INCF   2C,F
02D8:  BSF    03.1
02D9:  MOVLW  27
02DA:  MOVWF  04
02DB:  BCF    03.7
02DC:  MOVF   2A,W
02DD:  MOVWF  37
02DE:  MOVF   29,W
02DF:  MOVWF  36
02E0:  MOVF   28,W
02E1:  MOVWF  35
02E2:  MOVF   27,W
02E3:  MOVWF  34
02E4:  MOVF   33,W
02E5:  MOVWF  3B
02E6:  MOVF   32,W
02E7:  MOVWF  3A
02E8:  MOVF   31,W
02E9:  MOVWF  39
02EA:  MOVF   30,W
02EB:  MOVWF  38
02EC:  CALL   221
02ED:  MOVF   78,W
02EE:  MOVF   77,F
02EF:  BTFSS  03.2
02F0:  GOTO   304
02F1:  INCF   2B,W
02F2:  SUBWF  2E,W
02F3:  BTFSC  03.2
02F4:  GOTO   304
02F5:  MOVF   2C,W
02F6:  BTFSC  03.2
02F7:  GOTO   306
02F8:  ANDLW  0F
02F9:  SUBWF  2E,W
02FA:  BTFSC  03.2
02FB:  GOTO   2FE
02FC:  BTFSC  03.0
02FD:  GOTO   336
02FE:  BTFSC  2C.7
02FF:  GOTO   336
0300:  BTFSC  2C.6
0301:  GOTO   306
0302:  MOVLW  20
0303:  GOTO   332
0304:  MOVLW  20
0305:  ANDWF  2C,F
0306:  BTFSS  2C.5
0307:  GOTO   314
0308:  BCF    2C.5
0309:  MOVF   2B,W
030A:  BTFSS  03.2
030B:  DECF   2C,F
030C:  MOVF   77,W
030D:  MOVWF  2C
030E:  MOVLW  2D
030F:  MOVWF  34
0310:  CALL   1A1
0311:  MOVF   2C,W
0312:  MOVWF  77
0313:  CLRF   2C
0314:  MOVF   2B,W
0315:  SUBWF  2E,W
0316:  BTFSS  03.2
0317:  GOTO   322
0318:  MOVF   77,W
0319:  MOVWF  2C
031A:  MOVLW  2E
031B:  MOVWF  34
031C:  CALL   1A1
031D:  MOVF   2C,W
031E:  MOVWF  77
031F:  MOVLW  20
0320:  ANDWF  2C,F
0321:  MOVLW  00
0322:  MOVLW  30
0323:  BTFSS  2C.5
0324:  GOTO   332
0325:  BCF    2C.5
0326:  MOVF   2B,W
0327:  BTFSS  03.2
0328:  DECF   2C,F
0329:  MOVF   77,W
032A:  MOVWF  2C
032B:  MOVLW  2D
032C:  MOVWF  34
032D:  CALL   1A1
032E:  MOVF   2C,W
032F:  MOVWF  77
0330:  CLRF   2C
0331:  MOVLW  30
0332:  ADDWF  77,F
0333:  MOVF   77,W
0334:  MOVWF  34
0335:  CALL   1A1
0336:  BCF    03.1
0337:  MOVF   33,W
0338:  MOVWF  37
0339:  MOVF   32,W
033A:  MOVWF  36
033B:  MOVF   31,W
033C:  MOVWF  35
033D:  MOVF   30,W
033E:  MOVWF  34
033F:  CLRF   3B
0340:  CLRF   3A
0341:  CLRF   39
0342:  MOVLW  0A
0343:  MOVWF  38
0344:  CALL   221
0345:  MOVF   7A,W
0346:  MOVWF  33
0347:  MOVF   79,W
0348:  MOVWF  32
0349:  MOVF   78,W
034A:  MOVWF  31
034B:  MOVF   77,W
034C:  MOVWF  30
034D:  DECFSZ 2E,F
034E:  GOTO   2D8
034F:  RETURN
*
03D4:  MOVLW  80
03D5:  BTFSC  03.1
03D6:  XORWF  2C,F
03D7:  CLRF   31
03D8:  CLRF   32
03D9:  MOVF   28,W
03DA:  MOVWF  30
03DB:  MOVF   2C,W
03DC:  XORWF  30,F
03DD:  MOVF   27,W
03DE:  BTFSC  03.2
03DF:  GOTO   4C4
03E0:  MOVWF  2F
03E1:  MOVWF  77
03E2:  MOVF   2B,W
03E3:  BTFSC  03.2
03E4:  GOTO   4CD
03E5:  SUBWF  2F,F
03E6:  BTFSC  03.2
03E7:  GOTO   469
03E8:  BTFSS  03.0
03E9:  GOTO   427
03EA:  MOVF   2C,W
03EB:  MOVWF  35
03EC:  BSF    35.7
03ED:  MOVF   2D,W
03EE:  MOVWF  34
03EF:  MOVF   2E,W
03F0:  MOVWF  33
03F1:  CLRF   32
03F2:  BCF    03.0
03F3:  RRF    35,F
03F4:  RRF    34,F
03F5:  RRF    33,F
03F6:  RRF    32,F
03F7:  DECFSZ 2F,F
03F8:  GOTO   3F1
03F9:  BTFSS  30.7
03FA:  GOTO   3FE
03FB:  BSF    31.0
03FC:  GOTO   4E1
03FD:  BCF    31.0
03FE:  BCF    2F.0
03FF:  BSF    31.4
0400:  MOVLW  2A
0401:  MOVWF  04
0402:  BCF    03.7
0403:  GOTO   4F6
0404:  BCF    31.4
0405:  BTFSC  30.7
0406:  GOTO   411
0407:  BTFSS  2F.0
0408:  GOTO   41C
0409:  RRF    35,F
040A:  RRF    34,F
040B:  RRF    33,F
040C:  RRF    32,F
040D:  INCF   77,F
040E:  BTFSC  03.2
040F:  GOTO   4DC
0410:  GOTO   41C
0411:  BTFSC  35.7
0412:  GOTO   41F
0413:  BCF    03.0
0414:  RLF    32,F
0415:  RLF    33,F
0416:  RLF    34,F
0417:  RLF    35,F
0418:  DECF   77,F
0419:  BTFSC  03.2
041A:  GOTO   4DC
041B:  GOTO   411
041C:  BSF    31.6
041D:  GOTO   489
041E:  BCF    31.6
041F:  MOVF   28,W
0420:  MOVWF  30
0421:  BTFSS  30.7
0422:  GOTO   425
0423:  BSF    35.7
0424:  GOTO   4D5
0425:  BCF    35.7
0426:  GOTO   4D5
0427:  MOVF   2B,W
0428:  MOVWF  2F
0429:  MOVWF  77
042A:  MOVF   27,W
042B:  SUBWF  2F,F
042C:  MOVF   28,W
042D:  MOVWF  35
042E:  BSF    35.7
042F:  MOVF   29,W
0430:  MOVWF  34
0431:  MOVF   2A,W
0432:  MOVWF  33
0433:  CLRF   32
0434:  BCF    03.0
0435:  RRF    35,F
0436:  RRF    34,F
0437:  RRF    33,F
0438:  RRF    32,F
0439:  DECFSZ 2F,F
043A:  GOTO   433
043B:  BTFSS  30.7
043C:  GOTO   440
043D:  BSF    31.1
043E:  GOTO   4E1
043F:  BCF    31.1
0440:  BCF    2F.0
0441:  BSF    31.5
0442:  MOVLW  2E
0443:  MOVWF  04
0444:  BCF    03.7
0445:  GOTO   4F6
0446:  BCF    31.5
0447:  BTFSC  30.7
0448:  GOTO   453
0449:  BTFSS  2F.0
044A:  GOTO   45E
044B:  RRF    35,F
044C:  RRF    34,F
044D:  RRF    33,F
044E:  RRF    32,F
044F:  INCF   77,F
0450:  BTFSC  03.2
0451:  GOTO   4DC
0452:  GOTO   45E
0453:  BTFSC  35.7
0454:  GOTO   461
0455:  BCF    03.0
0456:  RLF    32,F
0457:  RLF    33,F
0458:  RLF    34,F
0459:  RLF    35,F
045A:  DECF   77,F
045B:  BTFSC  03.2
045C:  GOTO   4DC
045D:  GOTO   453
045E:  BSF    31.7
045F:  GOTO   489
0460:  BCF    31.7
0461:  MOVF   2C,W
0462:  MOVWF  30
0463:  BTFSS  30.7
0464:  GOTO   467
0465:  BSF    35.7
0466:  GOTO   4D5
0467:  BCF    35.7
0468:  GOTO   4D5
0469:  MOVF   2C,W
046A:  MOVWF  35
046B:  BSF    35.7
046C:  MOVF   2D,W
046D:  MOVWF  34
046E:  MOVF   2E,W
046F:  MOVWF  33
0470:  BTFSS  30.7
0471:  GOTO   476
0472:  BCF    35.7
0473:  BSF    31.2
0474:  GOTO   4E1
0475:  BCF    31.2
0476:  CLRF   32
0477:  BCF    2F.0
0478:  MOVLW  2A
0479:  MOVWF  04
047A:  BCF    03.7
047B:  GOTO   4F6
047C:  BTFSC  30.7
047D:  GOTO   49F
047E:  MOVF   28,W
047F:  MOVWF  30
0480:  BTFSS  2F.0
0481:  GOTO   489
0482:  RRF    35,F
0483:  RRF    34,F
0484:  RRF    33,F
0485:  RRF    32,F
0486:  INCF   77,F
0487:  BTFSC  03.2
0488:  GOTO   4DC
0489:  BTFSS  32.7
048A:  GOTO   49A
048B:  INCF   33,F
048C:  BTFSS  03.2
048D:  GOTO   49A
048E:  INCF   34,F
048F:  BTFSS  03.2
0490:  GOTO   49A
0491:  INCF   35,F
0492:  BTFSS  03.2
0493:  GOTO   49A
0494:  RRF    35,F
0495:  RRF    34,F
0496:  RRF    33,F
0497:  INCF   77,F
0498:  BTFSC  03.2
0499:  GOTO   4DC
049A:  BTFSC  31.6
049B:  GOTO   41E
049C:  BTFSC  31.7
049D:  GOTO   460
049E:  GOTO   4BE
049F:  MOVLW  80
04A0:  XORWF  35,F
04A1:  BTFSS  35.7
04A2:  GOTO   4A7
04A3:  GOTO   4E1
04A4:  MOVF   2C,W
04A5:  MOVWF  30
04A6:  GOTO   4B4
04A7:  MOVF   28,W
04A8:  MOVWF  30
04A9:  MOVF   35,F
04AA:  BTFSS  03.2
04AB:  GOTO   4B4
04AC:  MOVF   34,F
04AD:  BTFSS  03.2
04AE:  GOTO   4B4
04AF:  MOVF   33,F
04B0:  BTFSS  03.2
04B1:  GOTO   4B4
04B2:  CLRF   77
04B3:  GOTO   4D5
04B4:  BTFSC  35.7
04B5:  GOTO   4BE
04B6:  BCF    03.0
04B7:  RLF    32,F
04B8:  RLF    33,F
04B9:  RLF    34,F
04BA:  RLF    35,F
04BB:  DECFSZ 77,F
04BC:  GOTO   4B4
04BD:  GOTO   4DC
04BE:  BTFSS  30.7
04BF:  GOTO   4C2
04C0:  BSF    35.7
04C1:  GOTO   4D5
04C2:  BCF    35.7
04C3:  GOTO   4D5
04C4:  MOVF   2B,W
04C5:  MOVWF  77
04C6:  MOVF   2C,W
04C7:  MOVWF  35
04C8:  MOVF   2D,W
04C9:  MOVWF  34
04CA:  MOVF   2E,W
04CB:  MOVWF  33
04CC:  GOTO   4D5
04CD:  MOVF   27,W
04CE:  MOVWF  77
04CF:  MOVF   28,W
04D0:  MOVWF  35
04D1:  MOVF   29,W
04D2:  MOVWF  34
04D3:  MOVF   2A,W
04D4:  MOVWF  33
04D5:  MOVF   35,W
04D6:  MOVWF  78
04D7:  MOVF   34,W
04D8:  MOVWF  79
04D9:  MOVF   33,W
04DA:  MOVWF  7A
04DB:  GOTO   514
04DC:  CLRF   77
04DD:  CLRF   78
04DE:  CLRF   79
04DF:  CLRF   7A
04E0:  GOTO   514
04E1:  CLRF   32
04E2:  COMF   33,F
04E3:  COMF   34,F
04E4:  COMF   35,F
04E5:  COMF   32,F
04E6:  INCF   32,F
04E7:  BTFSS  03.2
04E8:  GOTO   4EF
04E9:  INCF   33,F
04EA:  BTFSS  03.2
04EB:  GOTO   4EF
04EC:  INCF   34,F
04ED:  BTFSC  03.2
04EE:  INCF   35,F
04EF:  BTFSC  31.0
04F0:  GOTO   3FD
04F1:  BTFSC  31.1
04F2:  GOTO   43F
04F3:  BTFSC  31.2
04F4:  GOTO   475
04F5:  GOTO   4A4
04F6:  MOVF   00,W
04F7:  ADDWF  33,F
04F8:  BTFSS  03.0
04F9:  GOTO   500
04FA:  INCF   34,F
04FB:  BTFSS  03.2
04FC:  GOTO   500
04FD:  INCF   35,F
04FE:  BTFSC  03.2
04FF:  BSF    2F.0
0500:  DECF   04,F
0501:  MOVF   00,W
0502:  ADDWF  34,F
0503:  BTFSS  03.0
0504:  GOTO   508
0505:  INCF   35,F
0506:  BTFSC  03.2
0507:  BSF    2F.0
0508:  DECF   04,F
0509:  MOVF   00,W
050A:  BTFSS  00.7
050B:  XORLW  80
050C:  ADDWF  35,F
050D:  BTFSC  03.0
050E:  BSF    2F.0
050F:  BTFSC  31.4
0510:  GOTO   404
0511:  BTFSC  31.5
0512:  GOTO   446
0513:  GOTO   47C
*
052B:  MOVLW  8E
052C:  MOVWF  77
052D:  MOVF   23,W
052E:  SUBWF  77,F
052F:  MOVF   24,W
0530:  MOVWF  79
0531:  MOVF   25,W
0532:  MOVWF  78
0533:  BSF    79.7
0534:  MOVF   77,F
0535:  BTFSC  03.2
0536:  GOTO   542
0537:  BCF    03.0
0538:  MOVF   79,F
0539:  BTFSS  03.2
053A:  GOTO   53E
053B:  MOVF   78,F
053C:  BTFSC  03.2
053D:  GOTO   542
053E:  RRF    79,F
053F:  RRF    78,F
0540:  DECFSZ 77,F
0541:  GOTO   537
0542:  BTFSS  24.7
0543:  GOTO   549
0544:  COMF   78,F
0545:  COMF   79,F
0546:  INCF   78,F
0547:  BTFSC  03.2
0548:  INCF   79,F
*
058F:  CLRF   2F
0590:  MOVF   04,W
0591:  MOVWF  2E
0592:  BCF    2F.0
0593:  BTFSC  03.7
0594:  BSF    2F.0
0595:  SWAPF  28,W
0596:  IORLW  F0
0597:  MOVWF  2A
0598:  ADDWF  2A,F
0599:  ADDLW  E2
059A:  MOVWF  2B
059B:  ADDLW  32
059C:  MOVWF  2D
059D:  MOVF   28,W
059E:  ANDLW  0F
059F:  ADDWF  2B,F
05A0:  ADDWF  2B,F
05A1:  ADDWF  2D,F
05A2:  ADDLW  E9
05A3:  MOVWF  2C
05A4:  ADDWF  2C,F
05A5:  ADDWF  2C,F
05A6:  SWAPF  27,W
05A7:  ANDLW  0F
05A8:  ADDWF  2C,F
05A9:  ADDWF  2D,F
05AA:  RLF    2C,F
05AB:  RLF    2D,F
05AC:  COMF   2D,F
05AD:  RLF    2D,F
05AE:  MOVF   27,W
05AF:  ANDLW  0F
05B0:  ADDWF  2D,F
05B1:  RLF    2A,F
05B2:  MOVLW  07
05B3:  MOVWF  29
05B4:  MOVLW  0A
05B5:  ADDWF  2D,F
05B6:  DECF   2C,F
05B7:  BTFSS  03.0
05B8:  GOTO   5B5
05B9:  ADDWF  2C,F
05BA:  DECF   2B,F
05BB:  BTFSS  03.0
05BC:  GOTO   5B9
05BD:  ADDWF  2B,F
05BE:  DECF   2A,F
05BF:  BTFSS  03.0
05C0:  GOTO   5BD
05C1:  ADDWF  2A,F
05C2:  DECF   29,F
05C3:  BTFSS  03.0
05C4:  GOTO   5C1
05C5:  MOVLW  29
05C6:  MOVWF  04
05C7:  BCF    03.7
05C8:  MOVLW  07
05C9:  ANDWF  2E,W
05CA:  BCF    2E.6
05CB:  ADDWF  04,F
05CC:  MOVLW  2D
05CD:  SUBWF  04,W
05CE:  BTFSC  03.2
05CF:  BSF    2E.6
05D0:  MOVF   00,W
05D1:  MOVWF  77
05D2:  BTFSS  03.2
05D3:  GOTO   5DC
05D4:  BTFSC  2E.6
05D5:  GOTO   5DC
05D6:  BTFSC  2E.4
05D7:  GOTO   5EE
05D8:  BTFSC  2E.3
05D9:  GOTO   5DC
05DA:  MOVLW  20
05DB:  GOTO   5DF
05DC:  BSF    2E.3
05DD:  BCF    2E.4
05DE:  MOVLW  30
05DF:  ADDWF  77,F
05E0:  CLRF   28
05E1:  MOVF   04,W
05E2:  MOVWF  27
05E3:  BCF    28.0
05E4:  BTFSC  03.7
05E5:  BSF    28.0
05E6:  MOVF   77,W
05E7:  MOVWF  34
05E8:  CALL   1A1
05E9:  MOVF   27,W
05EA:  MOVWF  04
05EB:  BCF    03.7
05EC:  BTFSC  28.0
05ED:  BSF    03.7
05EE:  INCF   04,F
05EF:  BTFSS  2E.6
05F0:  GOTO   5CC
....................  
.................... #list 
....................  
.................... #device ICD=true 
.................... #device ADC=10 
....................   
.................... #FUSES NOBROWNOUT               //No brownout reset 
.................... #FUSES NOLVP                    //No low voltage prgming, B3(PIC16) or B5(PIC18) used for I/O 
....................   
.................... #use delay(internal=8000000,clock_out) 
*
0619:  MOVLW  21
061A:  MOVWF  04
061B:  BCF    03.7
061C:  MOVF   00,W
061D:  BTFSC  03.2
061E:  GOTO   62C
061F:  MOVLW  02
0620:  MOVWF  78
0621:  CLRF   77
0622:  DECFSZ 77,F
0623:  GOTO   622
0624:  DECFSZ 78,F
0625:  GOTO   621
0626:  MOVLW  97
0627:  MOVWF  77
0628:  DECFSZ 77,F
0629:  GOTO   628
062A:  DECFSZ 00,F
062B:  GOTO   61F
062C:  BCF    0A.3
062D:  BCF    0A.4
062E:  GOTO   674 (RETURN)
....................   
.................... //#use rs232( baud=9600, parity=N, xmit=PIN_C6, rcv=PIN_C7, bits=8, ERRORS) 
....................   
.................... #use RS232 (DEBUGGER) 
*
01A1:  BSF    03.5
01A2:  BCF    06.3
01A3:  BCF    03.5
01A4:  BCF    06.3
01A5:  MOVLW  08
01A6:  MOVWF  78
01A7:  GOTO   1A8
01A8:  NOP
01A9:  BSF    78.7
01AA:  GOTO   1B9
01AB:  BCF    78.7
01AC:  RRF    34,F
01AD:  BTFSC  03.0
01AE:  BSF    06.3
01AF:  BTFSS  03.0
01B0:  BCF    06.3
01B1:  BSF    78.6
01B2:  GOTO   1B9
01B3:  BCF    78.6
01B4:  DECFSZ 78,F
01B5:  GOTO   1AC
01B6:  GOTO   1B7
01B7:  NOP
01B8:  BSF    06.3
01B9:  MOVLW  01
01BA:  MOVWF  77
01BB:  CLRF   04
01BC:  DECFSZ 04,F
01BD:  GOTO   1BC
01BE:  DECFSZ 77,F
01BF:  GOTO   1BB
01C0:  MOVLW  0E
01C1:  MOVWF  04
01C2:  DECFSZ 04,F
01C3:  GOTO   1C2
01C4:  NOP
01C5:  BTFSC  78.7
01C6:  GOTO   1AB
01C7:  BTFSC  78.6
01C8:  GOTO   1B3
01C9:  RETURN
....................   
.................... #use  I2C(master, sda=PIN_C4, scl= PIN_C3) 
....................  
....................  
....................  
.................... #define CHANNEL_LONG_RANGE  4 
.................... #define CHANNEL_SHORT_RANGE 6 
....................  
.................... unsigned int16 readInternalAdc(unsigned int8 channel) 
.................... { 
....................   set_adc_channel(channel); 
*
0352:  RLF    23,W
0353:  MOVWF  77
0354:  RLF    77,F
0355:  MOVLW  FC
0356:  ANDWF  77,F
0357:  MOVF   1F,W
0358:  ANDLW  C3
0359:  IORWF  77,W
035A:  MOVWF  1F
....................   delay_us(20); 
035B:  MOVLW  0C
035C:  MOVWF  77
035D:  DECFSZ 77,F
035E:  GOTO   35D
035F:  GOTO   360
0360:  NOP
....................  
....................   read_adc(ADC_START_ONLY); // start the ADC for conversion 
0361:  BSF    1F.1
....................    
....................   int1 done = adc_done();   // Poll on ADC result 
0362:  BCF    24.0
0363:  BTFSS  1F.1
0364:  BSF    24.0
....................   while(!done)  
0365:  BTFSC  24.0
0366:  GOTO   36B
....................   { 
....................     // wait until measurement is ready 
....................     done = adc_done(); 
0367:  BCF    24.0
0368:  BTFSS  1F.1
0369:  BSF    24.0
036A:  GOTO   365
....................   } 
....................    
....................   // read conversion result 
....................   return((int16)read_adc(ADC_READ_ONLY)); 
036B:  BTFSC  1F.1
036C:  GOTO   36B
036D:  MOVF   1E,W
036E:  MOVWF  7A
036F:  BSF    03.5
0370:  MOVF   1E,W
0371:  MOVWF  78
0372:  MOVF   7A,W
0373:  MOVWF  79
.................... } 
....................  
.................... //unsigned int16 readLongRangeSensor() 
.................... float readLongRangeSensor() 
.................... { 
....................   unsigned int16 iSensorRead; 
....................   iSensorRead = readInternalAdc(CHANNEL_LONG_RANGE); 
*
0350:  MOVLW  04
0351:  MOVWF  23
*
0374:  MOVF   79,W
0375:  BCF    03.5
0376:  MOVWF  22
0377:  MOVF   78,W
0378:  MOVWF  21
....................    
....................   if(iSensorRead >= 1000 || iSensorRead <= 573 ){ 
0379:  MOVF   22,W
037A:  SUBLW  02
037B:  BTFSC  03.0
037C:  GOTO   384
037D:  XORLW  FF
037E:  BTFSS  03.2
037F:  GOTO   38E
0380:  MOVF   21,W
0381:  SUBLW  E7
0382:  BTFSS  03.0
0383:  GOTO   38E
0384:  MOVF   22,W
0385:  SUBLW  02
0386:  BTFSS  03.0
0387:  GOTO   391
0388:  BTFSS  03.2
0389:  GOTO   38E
038A:  MOVF   21,W
038B:  SUBLW  3D
038C:  BTFSS  03.0
038D:  GOTO   391
....................    iSensorRead = 0; 
038E:  CLRF   22
038F:  CLRF   21
....................   } 
0390:  GOTO   611
....................   else 
....................   { 
....................       iSensorRead = 122f / (( 2.5f * ((float) iSensorRead) ) / 1024f - 1.28f); 
0391:  MOVF   22,W
0392:  MOVWF  24
0393:  MOVF   21,W
0394:  MOVWF  23
0395:  CALL   045
0396:  CLRF   37
0397:  CLRF   36
0398:  MOVLW  20
0399:  MOVWF  35
039A:  MOVLW  80
039B:  MOVWF  34
039C:  MOVF   7A,W
039D:  MOVWF  3B
039E:  MOVF   79,W
039F:  MOVWF  3A
03A0:  MOVF   78,W
03A1:  MOVWF  39
03A2:  MOVF   77,W
03A3:  MOVWF  38
03A4:  CALL   062
03A5:  MOVF   7A,W
03A6:  MOVWF  26
03A7:  MOVF   79,W
03A8:  MOVWF  25
03A9:  MOVF   78,W
03AA:  MOVWF  24
03AB:  MOVF   77,W
03AC:  MOVWF  23
03AD:  MOVF   26,W
03AE:  MOVWF  2A
03AF:  MOVF   25,W
03B0:  MOVWF  29
03B1:  MOVF   24,W
03B2:  MOVWF  28
03B3:  MOVF   23,W
03B4:  MOVWF  27
03B5:  CLRF   2E
03B6:  CLRF   2D
03B7:  CLRF   2C
03B8:  MOVLW  89
03B9:  MOVWF  2B
03BA:  CALL   0D7
03BB:  MOVF   7A,W
03BC:  MOVWF  26
03BD:  MOVF   79,W
03BE:  MOVWF  25
03BF:  MOVF   78,W
03C0:  MOVWF  24
03C1:  MOVF   77,W
03C2:  MOVWF  23
03C3:  BSF    03.1
03C4:  MOVF   26,W
03C5:  MOVWF  2A
03C6:  MOVF   25,W
03C7:  MOVWF  29
03C8:  MOVF   24,W
03C9:  MOVWF  28
03CA:  MOVF   23,W
03CB:  MOVWF  27
03CC:  MOVLW  0A
03CD:  MOVWF  2E
03CE:  MOVLW  D7
03CF:  MOVWF  2D
03D0:  MOVLW  23
03D1:  MOVWF  2C
03D2:  MOVLW  7F
03D3:  MOVWF  2B
*
0514:  CLRF   2A
0515:  CLRF   29
0516:  MOVLW  74
0517:  MOVWF  28
0518:  MOVLW  85
0519:  MOVWF  27
051A:  MOVF   7A,W
051B:  MOVWF  2E
051C:  MOVF   79,W
051D:  MOVWF  2D
051E:  MOVF   78,W
051F:  MOVWF  2C
0520:  MOVF   77,W
0521:  MOVWF  2B
0522:  CALL   0D7
0523:  MOVF   7A,W
0524:  MOVWF  26
0525:  MOVF   79,W
0526:  MOVWF  25
0527:  MOVF   78,W
0528:  MOVWF  24
0529:  MOVF   77,W
052A:  MOVWF  23
*
0549:  MOVF   79,W
054A:  MOVWF  22
054B:  MOVF   78,W
054C:  MOVWF  21
....................       /* Add conversion formulas here */ 
....................       //  return ((275 * iSensorRead) / 1025); 
....................       //  return ((float) iSensorRead) * 0.268f; 
....................       printf("iSensorRead: %Lu \t in volt: %f \t\t", iSensorRead, (iSensorRead * 2.5f) / 1024f ); 
054D:  MOVF   22,W
054E:  MOVWF  24
054F:  MOVF   21,W
0550:  MOVWF  23
0551:  CALL   045
0552:  MOVF   7A,W
0553:  MOVWF  37
0554:  MOVF   79,W
0555:  MOVWF  36
0556:  MOVF   78,W
0557:  MOVWF  35
0558:  MOVF   77,W
0559:  MOVWF  34
055A:  CLRF   3B
055B:  CLRF   3A
055C:  MOVLW  20
055D:  MOVWF  39
055E:  MOVLW  80
055F:  MOVWF  38
0560:  CALL   062
0561:  MOVF   7A,W
0562:  MOVWF  26
0563:  MOVF   79,W
0564:  MOVWF  25
0565:  MOVF   78,W
0566:  MOVWF  24
0567:  MOVF   77,W
0568:  MOVWF  23
0569:  MOVF   26,W
056A:  MOVWF  2A
056B:  MOVF   25,W
056C:  MOVWF  29
056D:  MOVF   24,W
056E:  MOVWF  28
056F:  MOVF   23,W
0570:  MOVWF  27
0571:  CLRF   2E
0572:  CLRF   2D
0573:  CLRF   2C
0574:  MOVLW  89
0575:  MOVWF  2B
0576:  CALL   0D7
0577:  MOVF   7A,W
0578:  MOVWF  26
0579:  MOVF   79,W
057A:  MOVWF  25
057B:  MOVF   78,W
057C:  MOVWF  24
057D:  MOVF   77,W
057E:  MOVWF  23
057F:  MOVLW  04
0580:  BSF    03.6
0581:  MOVWF  0D
0582:  MOVLW  00
0583:  MOVWF  0F
0584:  BCF    03.0
0585:  MOVLW  0D
0586:  BCF    03.6
0587:  MOVWF  27
0588:  CALL   1CA
0589:  MOVLW  10
058A:  MOVWF  04
058B:  MOVF   22,W
058C:  MOVWF  28
058D:  MOVF   21,W
058E:  MOVWF  27
*
05F1:  MOVLW  0C
05F2:  BSF    03.6
05F3:  MOVWF  0D
05F4:  MOVLW  00
05F5:  MOVWF  0F
05F6:  BCF    03.0
05F7:  MOVLW  0C
05F8:  BCF    03.6
05F9:  MOVWF  27
05FA:  CALL   1CA
05FB:  MOVLW  89
05FC:  MOVWF  04
05FD:  MOVF   26,W
05FE:  MOVWF  2A
05FF:  MOVF   25,W
0600:  MOVWF  29
0601:  MOVF   24,W
0602:  MOVWF  28
0603:  MOVF   23,W
0604:  MOVWF  27
0605:  MOVLW  02
0606:  MOVWF  2B
0607:  CALL   270
0608:  MOVLW  20
0609:  MOVWF  34
060A:  CALL   1A1
060B:  MOVLW  09
060C:  MOVWF  34
060D:  CALL   1A1
060E:  MOVLW  09
060F:  MOVWF  34
0610:  CALL   1A1
....................     
....................   } 
....................    return iSensorRead; 
0611:  MOVF   22,W
0612:  MOVWF  24
0613:  MOVF   21,W
0614:  MOVWF  23
0615:  CALL   045
0616:  BCF    0A.3
0617:  BCF    0A.4
0618:  GOTO   64F (RETURN)
.................... } 
....................  
.................... unsigned int16 readShortRangeSensor() 
.................... { 
....................   unsigned int16 iSensorRead; 
....................   iSensorRead = readInternalAdc(CHANNEL_SHORT_RANGE); 
....................   /* Add conversion formulas here */ 
....................   return iSensorRead; 
.................... } 
....................  
.................... void init() 
.................... { 
....................   setup_oscillator(OSC_8MHZ,2); 
*
0020:  MOVLW  71
0021:  BSF    03.5
0022:  MOVWF  0F
0023:  MOVLW  02
0024:  MOVWF  10
0025:  MOVF   0F,W
....................   
....................   /* Setup the  ADC to 2.5V */ 
....................   //setup_vref(VREF_LOW | 0x0C); 
....................    setup_vref(0xEC); 
0026:  MOVLW  EC
0027:  MOVWF  17
....................   setup_adc(ADC_CLOCK_DIV_32); 
0028:  BCF    03.5
0029:  BCF    1F.6
002A:  BSF    1F.7
002B:  BSF    03.5
002C:  BSF    1F.7
002D:  BCF    03.5
002E:  BSF    1F.0
....................   setup_adc_ports (sAN4 | sAN6 | VSS_VREF); 
002F:  BSF    03.5
0030:  BSF    03.6
0031:  MOVF   09,W
0032:  ANDLW  C0
0033:  MOVWF  09
0034:  BCF    03.6
0035:  BSF    1F.4
0036:  BCF    1F.5
0037:  MOVLW  50
0038:  BSF    03.6
0039:  MOVWF  08
....................     
....................   /* Initially start with channel 6 */ 
....................   set_adc_channel(6); 
003A:  MOVLW  18
003B:  MOVWF  78
003C:  BCF    03.5
003D:  BCF    03.6
003E:  MOVF   1F,W
003F:  ANDLW  C3
0040:  IORWF  78,W
0041:  MOVWF  1F
0042:  BCF    0A.3
0043:  BCF    0A.4
0044:  GOTO   64E (RETURN)
.................... } 
....................  
....................  
.................... void main() 
*
062F:  MOVF   03,W
0630:  ANDLW  1F
0631:  MOVWF  03
0632:  MOVLW  71
0633:  BSF    03.5
0634:  MOVWF  0F
0635:  CLRF   10
0636:  MOVF   0F,W
0637:  BCF    06.3
0638:  BCF    03.5
0639:  BSF    06.3
063A:  MOVLW  FF
063B:  MOVWF  20
063C:  BSF    03.5
063D:  BSF    03.6
063E:  MOVF   09,W
063F:  ANDLW  C0
0640:  MOVWF  09
0641:  BCF    03.6
0642:  BCF    1F.4
0643:  BCF    1F.5
0644:  MOVLW  00
0645:  BSF    03.6
0646:  MOVWF  08
0647:  BCF    03.5
0648:  CLRF   07
0649:  CLRF   08
064A:  CLRF   09
064B:  BCF    03.7
.................... { 
....................   init(); 
064C:  BCF    03.6
064D:  GOTO   020
....................  
....................   while(1) 
....................   { 
.................... //   printf("Long range read: %lu\n", readLongRangeSensor()); 
....................    printf("Long range read: %f\n", readLongRangeSensor());     
064E:  GOTO   350
064F:  MOVF   7A,W
0650:  MOVWF  24
0651:  MOVF   79,W
0652:  MOVWF  23
0653:  MOVF   78,W
0654:  MOVWF  22
0655:  MOVF   77,W
0656:  MOVWF  21
0657:  MOVLW  15
0658:  BSF    03.6
0659:  MOVWF  0D
065A:  MOVLW  00
065B:  MOVWF  0F
065C:  BCF    03.0
065D:  MOVLW  11
065E:  BCF    03.6
065F:  MOVWF  27
0660:  CALL   1CA
0661:  MOVLW  89
0662:  MOVWF  04
0663:  MOVF   24,W
0664:  MOVWF  2A
0665:  MOVF   23,W
0666:  MOVWF  29
0667:  MOVF   22,W
0668:  MOVWF  28
0669:  MOVF   21,W
066A:  MOVWF  27
066B:  MOVLW  02
066C:  MOVWF  2B
066D:  CALL   270
066E:  MOVLW  0A
066F:  MOVWF  34
0670:  CALL   1A1
....................      
.................... //    printf("Short range read: %lu\n\n", readShortRangeSensor()); 
....................     delay_ms(20); 
0671:  MOVLW  14
0672:  MOVWF  21
0673:  GOTO   619
0674:  GOTO   64E
....................   } 
.................... } 
0675:  GOTO   675

Configuration Fuses:
   Word  1: 0CF5   INTRC NOWDT NOPUT MCLR NOPROTECT NOCPD NOBROWNOUT IESO FCMEN NOLVP DEBUG
   Word  2: 3FFF   BORV40 NOWRT

   Some fuses have been forced to be compatible with the ICD debugger.
