CCS PCM C Compiler, Version 5.026, 18875               28-nov-17 17:40

               Filename:   C:\Users\User\Google Drev\DTU Elektro\5. semester\Digital Instrumentering\30021_project\DTULidar\Stepper Test\main.lst

               ROM used:   1675 words (21%)
                           Largest free fragment is 2048
               RAM used:   13 (4%) at main() level
                           47 (13%) worst case
               Stack used: 2 locations
               Stack size: 7

*
0000:  NOP
0001:  MOVLW  06
0002:  MOVWF  0A
0003:  GOTO   645
....................  
.................... #include <main.h> 
.................... #include <16F887.h> 
.................... //////////// Standard Header file for the PIC16F887 device //////////////// 
.................... /////////////////////////////////////////////////////////////////////////// 
.................... ////        (C) Copyright 1996, 2014 Custom Computer Services          //// 
.................... //// This source code may only be used by licensed users of the CCS C  //// 
.................... //// compiler.  This source code may only be distributed to other      //// 
.................... //// licensed users of the CCS C compiler.  No other use, reproduction //// 
.................... //// or distribution is permitted without written permission.          //// 
.................... //// Derivative programs created using this software in object code    //// 
.................... //// form are not restricted in any way.                               //// 
.................... /////////////////////////////////////////////////////////////////////////// 
.................... #device PIC16F887 
0004:  BCF    0A.0
0005:  BCF    0A.1
0006:  BCF    0A.2
0007:  ADDWF  02,F
0008:  RETLW  05
0009:  RETLW  09
000A:  RETLW  0A
000B:  RETLW  06
000C:  DATA 4F,39
000D:  DATA E9,33
000E:  DATA 69,37
000F:  DATA 61,36
0010:  DATA 20,3B
0011:  DATA 61,36
0012:  DATA F5,32
0013:  DATA 3A,10
0014:  DATA 25,26
0015:  DATA 75,10
0016:  DATA 20,10
0017:  DATA D2,32
0018:  DATA F3,31
0019:  DATA 61,36
001A:  DATA 65,32
001B:  DATA 20,3B
001C:  DATA 61,36
001D:  DATA F5,32
001E:  DATA 3A,10
001F:  DATA 25,33
0020:  DATA 0A,00
*
0049:  MOVF   3D,W
004A:  BTFSC  03.2
004B:  GOTO   0B9
004C:  MOVWF  45
004D:  MOVF   41,W
004E:  BTFSC  03.2
004F:  GOTO   0B9
0050:  ADDWF  45,F
0051:  BTFSC  03.0
0052:  GOTO   05A
0053:  MOVLW  7F
0054:  SUBWF  45,F
0055:  BTFSS  03.0
0056:  GOTO   0B9
0057:  BTFSC  03.2
0058:  GOTO   0B9
0059:  GOTO   05E
005A:  MOVLW  81
005B:  ADDWF  45,F
005C:  BTFSC  03.0
005D:  GOTO   0B9
005E:  MOVF   45,W
005F:  MOVWF  77
0060:  CLRF   78
0061:  CLRF   79
0062:  CLRF   7A
0063:  MOVF   3E,W
0064:  MOVWF  49
0065:  BSF    49.7
0066:  MOVF   3F,W
0067:  MOVWF  48
0068:  MOVF   40,W
0069:  MOVWF  47
006A:  MOVLW  18
006B:  MOVWF  45
006C:  CLRF   46
006D:  BTFSS  47.0
006E:  GOTO   087
006F:  MOVF   44,W
0070:  ADDWF  7A,F
0071:  BTFSS  03.0
0072:  GOTO   079
0073:  INCF   79,F
0074:  BTFSS  03.2
0075:  GOTO   079
0076:  INCF   78,F
0077:  BTFSC  03.2
0078:  BSF    46.7
0079:  MOVF   43,W
007A:  ADDWF  79,F
007B:  BTFSS  03.0
007C:  GOTO   080
007D:  INCF   78,F
007E:  BTFSC  03.2
007F:  BSF    46.7
0080:  MOVF   42,W
0081:  MOVWF  3F
0082:  BSF    3F.7
0083:  MOVF   3F,W
0084:  ADDWF  78,F
0085:  BTFSC  03.0
0086:  BSF    46.7
0087:  RLF    46,F
0088:  RRF    78,F
0089:  RRF    79,F
008A:  RRF    7A,F
008B:  RRF    49,F
008C:  RRF    48,F
008D:  RRF    47,F
008E:  BCF    03.0
008F:  DECFSZ 45,F
0090:  GOTO   06C
0091:  MOVLW  01
0092:  ADDWF  77,F
0093:  BTFSC  03.0
0094:  GOTO   0B9
0095:  BTFSC  78.7
0096:  GOTO   09E
0097:  RLF    49,F
0098:  RLF    7A,F
0099:  RLF    79,F
009A:  RLF    78,F
009B:  DECF   77,F
009C:  BTFSC  03.2
009D:  GOTO   0B9
009E:  BTFSS  49.7
009F:  GOTO   0AF
00A0:  INCF   7A,F
00A1:  BTFSS  03.2
00A2:  GOTO   0AF
00A3:  INCF   79,F
00A4:  BTFSS  03.2
00A5:  GOTO   0AF
00A6:  INCF   78,F
00A7:  BTFSS  03.2
00A8:  GOTO   0AF
00A9:  RRF    78,F
00AA:  RRF    79,F
00AB:  RRF    7A,F
00AC:  INCF   77,F
00AD:  BTFSC  03.2
00AE:  GOTO   0B9
00AF:  MOVF   3E,W
00B0:  MOVWF  46
00B1:  MOVF   42,W
00B2:  XORWF  46,F
00B3:  BTFSS  46.7
00B4:  GOTO   0B7
00B5:  BSF    78.7
00B6:  GOTO   0BD
00B7:  BCF    78.7
00B8:  GOTO   0BD
00B9:  CLRF   77
00BA:  CLRF   78
00BB:  CLRF   79
00BC:  CLRF   7A
00BD:  RETURN
00BE:  MOVF   3A,W
00BF:  BTFSC  03.2
00C0:  GOTO   183
00C1:  MOVWF  46
00C2:  MOVF   3E,W
00C3:  BTFSC  03.2
00C4:  GOTO   183
00C5:  SUBWF  46,F
00C6:  BTFSS  03.0
00C7:  GOTO   0CD
00C8:  MOVLW  7F
00C9:  ADDWF  46,F
00CA:  BTFSC  03.0
00CB:  GOTO   183
00CC:  GOTO   0D3
00CD:  MOVLW  81
00CE:  SUBWF  46,F
00CF:  BTFSS  03.0
00D0:  GOTO   183
00D1:  BTFSC  03.2
00D2:  GOTO   183
00D3:  MOVF   46,W
00D4:  MOVWF  77
00D5:  CLRF   78
00D6:  CLRF   79
00D7:  CLRF   7A
00D8:  CLRF   45
00D9:  MOVF   3B,W
00DA:  MOVWF  44
00DB:  BSF    44.7
00DC:  MOVF   3C,W
00DD:  MOVWF  43
00DE:  MOVF   3D,W
00DF:  MOVWF  42
00E0:  MOVLW  19
00E1:  MOVWF  46
00E2:  MOVF   41,W
00E3:  SUBWF  42,F
00E4:  BTFSC  03.0
00E5:  GOTO   0F6
00E6:  MOVLW  01
00E7:  SUBWF  43,F
00E8:  BTFSC  03.0
00E9:  GOTO   0F6
00EA:  SUBWF  44,F
00EB:  BTFSC  03.0
00EC:  GOTO   0F6
00ED:  SUBWF  45,F
00EE:  BTFSC  03.0
00EF:  GOTO   0F6
00F0:  INCF   45,F
00F1:  INCF   44,F
00F2:  INCF   43,F
00F3:  MOVF   41,W
00F4:  ADDWF  42,F
00F5:  GOTO   128
00F6:  MOVF   40,W
00F7:  SUBWF  43,F
00F8:  BTFSC  03.0
00F9:  GOTO   111
00FA:  MOVLW  01
00FB:  SUBWF  44,F
00FC:  BTFSC  03.0
00FD:  GOTO   111
00FE:  SUBWF  45,F
00FF:  BTFSC  03.0
0100:  GOTO   111
0101:  INCF   45,F
0102:  INCF   44,F
0103:  MOVF   40,W
0104:  ADDWF  43,F
0105:  MOVF   41,W
0106:  ADDWF  42,F
0107:  BTFSS  03.0
0108:  GOTO   128
0109:  INCF   43,F
010A:  BTFSS  03.2
010B:  GOTO   128
010C:  INCF   44,F
010D:  BTFSS  03.2
010E:  GOTO   128
010F:  INCF   45,F
0110:  GOTO   128
0111:  MOVF   3F,W
0112:  IORLW  80
0113:  SUBWF  44,F
0114:  BTFSC  03.0
0115:  GOTO   127
0116:  MOVLW  01
0117:  SUBWF  45,F
0118:  BTFSC  03.0
0119:  GOTO   127
011A:  INCF   45,F
011B:  MOVF   3F,W
011C:  IORLW  80
011D:  ADDWF  44,F
011E:  MOVF   40,W
011F:  ADDWF  43,F
0120:  BTFSS  03.0
0121:  GOTO   105
0122:  INCF   44,F
0123:  BTFSS  03.2
0124:  GOTO   105
0125:  INCF   45,F
0126:  GOTO   105
0127:  BSF    7A.0
0128:  DECFSZ 46,F
0129:  GOTO   12B
012A:  GOTO   136
012B:  BCF    03.0
012C:  RLF    42,F
012D:  RLF    43,F
012E:  RLF    44,F
012F:  RLF    45,F
0130:  BCF    03.0
0131:  RLF    7A,F
0132:  RLF    79,F
0133:  RLF    78,F
0134:  RLF    47,F
0135:  GOTO   0E2
0136:  BTFSS  47.0
0137:  GOTO   13E
0138:  BCF    03.0
0139:  RRF    78,F
013A:  RRF    79,F
013B:  RRF    7A,F
013C:  RRF    47,F
013D:  GOTO   141
013E:  DECF   77,F
013F:  BTFSC  03.2
0140:  GOTO   183
0141:  BTFSC  47.7
0142:  GOTO   16A
0143:  BCF    03.0
0144:  RLF    42,F
0145:  RLF    43,F
0146:  RLF    44,F
0147:  RLF    45,F
0148:  MOVF   41,W
0149:  SUBWF  42,F
014A:  BTFSC  03.0
014B:  GOTO   156
014C:  MOVLW  01
014D:  SUBWF  43,F
014E:  BTFSC  03.0
014F:  GOTO   156
0150:  SUBWF  44,F
0151:  BTFSC  03.0
0152:  GOTO   156
0153:  SUBWF  45,F
0154:  BTFSS  03.0
0155:  GOTO   179
0156:  MOVF   40,W
0157:  SUBWF  43,F
0158:  BTFSC  03.0
0159:  GOTO   161
015A:  MOVLW  01
015B:  SUBWF  44,F
015C:  BTFSC  03.0
015D:  GOTO   161
015E:  SUBWF  45,F
015F:  BTFSS  03.0
0160:  GOTO   179
0161:  MOVF   3F,W
0162:  IORLW  80
0163:  SUBWF  44,F
0164:  BTFSC  03.0
0165:  GOTO   16A
0166:  MOVLW  01
0167:  SUBWF  45,F
0168:  BTFSS  03.0
0169:  GOTO   179
016A:  INCF   7A,F
016B:  BTFSS  03.2
016C:  GOTO   179
016D:  INCF   79,F
016E:  BTFSS  03.2
016F:  GOTO   179
0170:  INCF   78,F
0171:  BTFSS  03.2
0172:  GOTO   179
0173:  INCF   77,F
0174:  BTFSC  03.2
0175:  GOTO   183
0176:  RRF    78,F
0177:  RRF    79,F
0178:  RRF    7A,F
0179:  MOVF   3B,W
017A:  MOVWF  46
017B:  MOVF   3F,W
017C:  XORWF  46,F
017D:  BTFSS  46.7
017E:  GOTO   181
017F:  BSF    78.7
0180:  GOTO   187
0181:  BCF    78.7
0182:  GOTO   187
0183:  CLRF   77
0184:  CLRF   78
0185:  CLRF   79
0186:  CLRF   7A
0187:  RETURN
*
01B1:  MOVF   0B,W
01B2:  MOVWF  31
01B3:  BCF    0B.7
01B4:  BSF    03.5
01B5:  BSF    03.6
01B6:  BSF    0C.7
01B7:  BSF    0C.0
01B8:  NOP
01B9:  NOP
01BA:  BCF    03.5
01BB:  BCF    03.6
01BC:  BTFSC  31.7
01BD:  BSF    0B.7
01BE:  BTFSC  03.0
01BF:  GOTO   1E8
01C0:  BSF    03.6
01C1:  MOVF   0C,W
01C2:  ANDLW  7F
01C3:  BCF    03.6
01C4:  MOVWF  31
01C5:  BSF    03.6
01C6:  MOVF   0D,W
01C7:  BCF    03.6
01C8:  MOVWF  32
01C9:  BSF    03.6
01CA:  MOVF   0F,W
01CB:  BCF    03.6
01CC:  MOVWF  33
01CD:  MOVF   31,W
01CE:  MOVWF  3D
01CF:  CALL   188
01D0:  MOVF   32,W
01D1:  BSF    03.6
01D2:  MOVWF  0D
01D3:  BCF    03.6
01D4:  MOVF   33,W
01D5:  BSF    03.6
01D6:  MOVWF  0F
01D7:  BCF    03.6
01D8:  MOVF   0B,W
01D9:  MOVWF  34
01DA:  BCF    0B.7
01DB:  BSF    03.5
01DC:  BSF    03.6
01DD:  BSF    0C.7
01DE:  BSF    0C.0
01DF:  NOP
01E0:  NOP
01E1:  BCF    03.5
01E2:  BCF    03.6
01E3:  BTFSC  34.7
01E4:  BSF    0B.7
01E5:  DECFSZ 30,F
01E6:  GOTO   1E8
01E7:  GOTO   207
01E8:  BSF    03.6
01E9:  RLF    0C,W
01EA:  RLF    0E,W
01EB:  ANDLW  7F
01EC:  BCF    03.6
01ED:  MOVWF  31
01EE:  BSF    03.6
01EF:  MOVF   0D,W
01F0:  BCF    03.6
01F1:  MOVWF  32
01F2:  BSF    03.6
01F3:  MOVF   0F,W
01F4:  BCF    03.6
01F5:  MOVWF  33
01F6:  MOVF   31,W
01F7:  MOVWF  3D
01F8:  CALL   188
01F9:  MOVF   32,W
01FA:  BSF    03.6
01FB:  MOVWF  0D
01FC:  BCF    03.6
01FD:  MOVF   33,W
01FE:  BSF    03.6
01FF:  MOVWF  0F
0200:  INCF   0D,F
0201:  BTFSC  03.2
0202:  INCF   0F,F
0203:  BCF    03.0
0204:  BCF    03.6
0205:  DECFSZ 30,F
0206:  GOTO   1B1
0207:  RETURN
0208:  CLRF   38
0209:  MOVF   04,W
020A:  MOVWF  37
020B:  BCF    38.0
020C:  BTFSC  03.7
020D:  BSF    38.0
020E:  SWAPF  31,W
020F:  IORLW  F0
0210:  MOVWF  33
0211:  ADDWF  33,F
0212:  ADDLW  E2
0213:  MOVWF  34
0214:  ADDLW  32
0215:  MOVWF  36
0216:  MOVF   31,W
0217:  ANDLW  0F
0218:  ADDWF  34,F
0219:  ADDWF  34,F
021A:  ADDWF  36,F
021B:  ADDLW  E9
021C:  MOVWF  35
021D:  ADDWF  35,F
021E:  ADDWF  35,F
021F:  SWAPF  30,W
0220:  ANDLW  0F
0221:  ADDWF  35,F
0222:  ADDWF  36,F
0223:  RLF    35,F
0224:  RLF    36,F
0225:  COMF   36,F
0226:  RLF    36,F
0227:  MOVF   30,W
0228:  ANDLW  0F
0229:  ADDWF  36,F
022A:  RLF    33,F
022B:  MOVLW  07
022C:  MOVWF  32
022D:  MOVLW  0A
022E:  ADDWF  36,F
022F:  DECF   35,F
0230:  BTFSS  03.0
0231:  GOTO   22E
0232:  ADDWF  35,F
0233:  DECF   34,F
0234:  BTFSS  03.0
0235:  GOTO   232
0236:  ADDWF  34,F
0237:  DECF   33,F
0238:  BTFSS  03.0
0239:  GOTO   236
023A:  ADDWF  33,F
023B:  DECF   32,F
023C:  BTFSS  03.0
023D:  GOTO   23A
023E:  MOVLW  32
023F:  MOVWF  04
0240:  BCF    03.7
0241:  MOVLW  07
0242:  ANDWF  37,W
0243:  BCF    37.6
0244:  ADDWF  04,F
0245:  MOVLW  36
0246:  SUBWF  04,W
0247:  BTFSC  03.2
0248:  BSF    37.6
0249:  MOVF   00,W
024A:  MOVWF  77
024B:  BTFSS  03.2
024C:  GOTO   255
024D:  BTFSC  37.6
024E:  GOTO   255
024F:  BTFSC  37.4
0250:  GOTO   267
0251:  BTFSC  37.3
0252:  GOTO   255
0253:  MOVLW  20
0254:  GOTO   258
0255:  BSF    37.3
0256:  BCF    37.4
0257:  MOVLW  30
0258:  ADDWF  77,F
0259:  CLRF   31
025A:  MOVF   04,W
025B:  MOVWF  30
025C:  BCF    31.0
025D:  BTFSC  03.7
025E:  BSF    31.0
025F:  MOVF   77,W
0260:  MOVWF  3D
0261:  CALL   188
0262:  MOVF   30,W
0263:  MOVWF  04
0264:  BCF    03.7
0265:  BTFSC  31.0
0266:  BSF    03.7
0267:  INCF   04,F
0268:  BTFSS  37.6
0269:  GOTO   245
026A:  RETURN
026B:  BTFSC  03.1
026C:  GOTO   270
026D:  MOVLW  45
026E:  MOVWF  04
026F:  BCF    03.7
0270:  CLRF   77
0271:  CLRF   78
0272:  CLRF   79
0273:  CLRF   7A
0274:  CLRF   45
0275:  CLRF   46
0276:  CLRF   47
0277:  CLRF   48
0278:  MOVF   44,W
0279:  IORWF  43,W
027A:  IORWF  42,W
027B:  IORWF  41,W
027C:  BTFSC  03.2
027D:  GOTO   2AE
027E:  MOVLW  20
027F:  MOVWF  49
0280:  BCF    03.0
0281:  RLF    3D,F
0282:  RLF    3E,F
0283:  RLF    3F,F
0284:  RLF    40,F
0285:  RLF    45,F
0286:  RLF    46,F
0287:  RLF    47,F
0288:  RLF    48,F
0289:  MOVF   44,W
028A:  SUBWF  48,W
028B:  BTFSS  03.2
028C:  GOTO   297
028D:  MOVF   43,W
028E:  SUBWF  47,W
028F:  BTFSS  03.2
0290:  GOTO   297
0291:  MOVF   42,W
0292:  SUBWF  46,W
0293:  BTFSS  03.2
0294:  GOTO   297
0295:  MOVF   41,W
0296:  SUBWF  45,W
0297:  BTFSS  03.0
0298:  GOTO   2A8
0299:  MOVF   41,W
029A:  SUBWF  45,F
029B:  MOVF   42,W
029C:  BTFSS  03.0
029D:  INCFSZ 42,W
029E:  SUBWF  46,F
029F:  MOVF   43,W
02A0:  BTFSS  03.0
02A1:  INCFSZ 43,W
02A2:  SUBWF  47,F
02A3:  MOVF   44,W
02A4:  BTFSS  03.0
02A5:  INCFSZ 44,W
02A6:  SUBWF  48,F
02A7:  BSF    03.0
02A8:  RLF    77,F
02A9:  RLF    78,F
02AA:  RLF    79,F
02AB:  RLF    7A,F
02AC:  DECFSZ 49,F
02AD:  GOTO   280
02AE:  MOVF   45,W
02AF:  MOVWF  00
02B0:  INCF   04,F
02B1:  MOVF   46,W
02B2:  MOVWF  00
02B3:  INCF   04,F
02B4:  MOVF   47,W
02B5:  MOVWF  00
02B6:  INCF   04,F
02B7:  MOVF   48,W
02B8:  MOVWF  00
02B9:  RETURN
02BA:  MOVF   04,W
02BB:  MOVWF  35
02BC:  MOVF   34,W
02BD:  MOVWF  37
02BE:  BTFSC  03.2
02BF:  GOTO   2D9
02C0:  MOVF   33,W
02C1:  MOVWF  40
02C2:  MOVF   32,W
02C3:  MOVWF  3F
02C4:  MOVF   31,W
02C5:  MOVWF  3E
02C6:  MOVF   30,W
02C7:  MOVWF  3D
02C8:  CLRF   44
02C9:  CLRF   43
02CA:  MOVLW  20
02CB:  MOVWF  42
02CC:  MOVLW  82
02CD:  MOVWF  41
02CE:  CALL   049
02CF:  MOVF   7A,W
02D0:  MOVWF  33
02D1:  MOVF   79,W
02D2:  MOVWF  32
02D3:  MOVF   78,W
02D4:  MOVWF  31
02D5:  MOVF   77,W
02D6:  MOVWF  30
02D7:  DECFSZ 37,F
02D8:  GOTO   2C0
02D9:  MOVF   33,W
02DA:  MOVWF  40
02DB:  MOVF   32,W
02DC:  MOVWF  3F
02DD:  MOVF   31,W
02DE:  MOVWF  3E
02DF:  MOVF   30,W
02E0:  MOVWF  3D
02E1:  MOVF   3D,W
02E2:  SUBLW  B6
02E3:  MOVWF  3D
02E4:  CLRF   7A
02E5:  MOVF   3E,W
02E6:  MOVWF  41
02E7:  BSF    3E.7
02E8:  BCF    03.0
02E9:  RRF    3E,F
02EA:  RRF    3F,F
02EB:  RRF    40,F
02EC:  RRF    7A,F
02ED:  RRF    79,F
02EE:  RRF    78,F
02EF:  RRF    77,F
02F0:  DECFSZ 3D,F
02F1:  GOTO   2E8
02F2:  BTFSS  41.7
02F3:  GOTO   2FF
02F4:  COMF   77,F
02F5:  COMF   78,F
02F6:  COMF   79,F
02F7:  COMF   7A,F
02F8:  INCF   77,F
02F9:  BTFSC  03.2
02FA:  INCF   78,F
02FB:  BTFSC  03.2
02FC:  INCF   79,F
02FD:  BTFSC  03.2
02FE:  INCF   7A,F
02FF:  MOVF   7A,W
0300:  MOVWF  33
0301:  MOVF   79,W
0302:  MOVWF  32
0303:  MOVF   78,W
0304:  MOVWF  31
0305:  MOVF   77,W
0306:  MOVWF  30
0307:  BTFSS  33.7
0308:  GOTO   316
0309:  DECF   35,F
030A:  BSF    35.5
030B:  COMF   30,F
030C:  COMF   31,F
030D:  COMF   32,F
030E:  COMF   33,F
030F:  INCF   30,F
0310:  BTFSC  03.2
0311:  INCF   31,F
0312:  BTFSC  03.2
0313:  INCF   32,F
0314:  BTFSC  03.2
0315:  INCF   33,F
0316:  MOVLW  3B
0317:  MOVWF  3C
0318:  MOVLW  9A
0319:  MOVWF  3B
031A:  MOVLW  CA
031B:  MOVWF  3A
031C:  CLRF   39
031D:  MOVLW  0A
031E:  MOVWF  37
031F:  MOVF   34,W
0320:  BTFSC  03.2
0321:  INCF   35,F
0322:  BSF    03.1
0323:  MOVLW  30
0324:  MOVWF  04
0325:  BCF    03.7
0326:  MOVF   33,W
0327:  MOVWF  40
0328:  MOVF   32,W
0329:  MOVWF  3F
032A:  MOVF   31,W
032B:  MOVWF  3E
032C:  MOVF   30,W
032D:  MOVWF  3D
032E:  MOVF   3C,W
032F:  MOVWF  44
0330:  MOVF   3B,W
0331:  MOVWF  43
0332:  MOVF   3A,W
0333:  MOVWF  42
0334:  MOVF   39,W
0335:  MOVWF  41
0336:  CALL   26B
0337:  MOVF   78,W
0338:  MOVF   77,F
0339:  BTFSS  03.2
033A:  GOTO   34E
033B:  INCF   34,W
033C:  SUBWF  37,W
033D:  BTFSC  03.2
033E:  GOTO   34E
033F:  MOVF   35,W
0340:  BTFSC  03.2
0341:  GOTO   350
0342:  ANDLW  0F
0343:  SUBWF  37,W
0344:  BTFSC  03.2
0345:  GOTO   348
0346:  BTFSC  03.0
0347:  GOTO   380
0348:  BTFSC  35.7
0349:  GOTO   380
034A:  BTFSC  35.6
034B:  GOTO   350
034C:  MOVLW  20
034D:  GOTO   37C
034E:  MOVLW  20
034F:  ANDWF  35,F
0350:  BTFSS  35.5
0351:  GOTO   35E
0352:  BCF    35.5
0353:  MOVF   34,W
0354:  BTFSS  03.2
0355:  DECF   35,F
0356:  MOVF   77,W
0357:  MOVWF  35
0358:  MOVLW  2D
0359:  MOVWF  3D
035A:  CALL   188
035B:  MOVF   35,W
035C:  MOVWF  77
035D:  CLRF   35
035E:  MOVF   34,W
035F:  SUBWF  37,W
0360:  BTFSS  03.2
0361:  GOTO   36C
0362:  MOVF   77,W
0363:  MOVWF  35
0364:  MOVLW  2E
0365:  MOVWF  3D
0366:  CALL   188
0367:  MOVF   35,W
0368:  MOVWF  77
0369:  MOVLW  20
036A:  ANDWF  35,F
036B:  MOVLW  00
036C:  MOVLW  30
036D:  BTFSS  35.5
036E:  GOTO   37C
036F:  BCF    35.5
0370:  MOVF   34,W
0371:  BTFSS  03.2
0372:  DECF   35,F
0373:  MOVF   77,W
0374:  MOVWF  35
0375:  MOVLW  2D
0376:  MOVWF  3D
0377:  CALL   188
0378:  MOVF   35,W
0379:  MOVWF  77
037A:  CLRF   35
037B:  MOVLW  30
037C:  ADDWF  77,F
037D:  MOVF   77,W
037E:  MOVWF  3D
037F:  CALL   188
0380:  BCF    03.1
0381:  MOVF   3C,W
0382:  MOVWF  40
0383:  MOVF   3B,W
0384:  MOVWF  3F
0385:  MOVF   3A,W
0386:  MOVWF  3E
0387:  MOVF   39,W
0388:  MOVWF  3D
0389:  CLRF   44
038A:  CLRF   43
038B:  CLRF   42
038C:  MOVLW  0A
038D:  MOVWF  41
038E:  CALL   26B
038F:  MOVF   7A,W
0390:  MOVWF  3C
0391:  MOVF   79,W
0392:  MOVWF  3B
0393:  MOVF   78,W
0394:  MOVWF  3A
0395:  MOVF   77,W
0396:  MOVWF  39
0397:  DECFSZ 37,F
0398:  GOTO   322
0399:  BCF    0A.3
039A:  BCF    0A.4
039B:  GOTO   5F0 (RETURN)
*
0407:  MOVLW  8E
0408:  MOVWF  77
0409:  MOVF   37,W
040A:  MOVWF  78
040B:  MOVF   36,W
040C:  MOVWF  79
040D:  CLRF   7A
040E:  MOVF   78,F
040F:  BTFSS  03.2
0410:  GOTO   41B
0411:  MOVF   79,W
0412:  MOVWF  78
0413:  CLRF   79
0414:  MOVLW  08
0415:  SUBWF  77,F
0416:  MOVF   78,F
0417:  BTFSS  03.2
0418:  GOTO   41B
0419:  CLRF   77
041A:  GOTO   423
041B:  BCF    03.0
041C:  BTFSC  78.7
041D:  GOTO   422
041E:  RLF    79,F
041F:  RLF    78,F
0420:  DECF   77,F
0421:  GOTO   41B
0422:  BCF    78.7
*
0461:  MOVLW  80
0462:  BTFSC  03.1
0463:  XORWF  3F,F
0464:  CLRF   44
0465:  CLRF   45
0466:  MOVF   3B,W
0467:  MOVWF  43
0468:  MOVF   3F,W
0469:  XORWF  43,F
046A:  MOVF   3A,W
046B:  BTFSC  03.2
046C:  GOTO   551
046D:  MOVWF  42
046E:  MOVWF  77
046F:  MOVF   3E,W
0470:  BTFSC  03.2
0471:  GOTO   55A
0472:  SUBWF  42,F
0473:  BTFSC  03.2
0474:  GOTO   4F6
0475:  BTFSS  03.0
0476:  GOTO   4B4
0477:  MOVF   3F,W
0478:  MOVWF  48
0479:  BSF    48.7
047A:  MOVF   40,W
047B:  MOVWF  47
047C:  MOVF   41,W
047D:  MOVWF  46
047E:  CLRF   45
047F:  BCF    03.0
0480:  RRF    48,F
0481:  RRF    47,F
0482:  RRF    46,F
0483:  RRF    45,F
0484:  DECFSZ 42,F
0485:  GOTO   47E
0486:  BTFSS  43.7
0487:  GOTO   48B
0488:  BSF    44.0
0489:  GOTO   56E
048A:  BCF    44.0
048B:  BCF    42.0
048C:  BSF    44.4
048D:  MOVLW  3D
048E:  MOVWF  04
048F:  BCF    03.7
0490:  GOTO   583
0491:  BCF    44.4
0492:  BTFSC  43.7
0493:  GOTO   49E
0494:  BTFSS  42.0
0495:  GOTO   4A9
0496:  RRF    48,F
0497:  RRF    47,F
0498:  RRF    46,F
0499:  RRF    45,F
049A:  INCF   77,F
049B:  BTFSC  03.2
049C:  GOTO   569
049D:  GOTO   4A9
049E:  BTFSC  48.7
049F:  GOTO   4AC
04A0:  BCF    03.0
04A1:  RLF    45,F
04A2:  RLF    46,F
04A3:  RLF    47,F
04A4:  RLF    48,F
04A5:  DECF   77,F
04A6:  BTFSC  03.2
04A7:  GOTO   569
04A8:  GOTO   49E
04A9:  BSF    44.6
04AA:  GOTO   516
04AB:  BCF    44.6
04AC:  MOVF   3B,W
04AD:  MOVWF  43
04AE:  BTFSS  43.7
04AF:  GOTO   4B2
04B0:  BSF    48.7
04B1:  GOTO   562
04B2:  BCF    48.7
04B3:  GOTO   562
04B4:  MOVF   3E,W
04B5:  MOVWF  42
04B6:  MOVWF  77
04B7:  MOVF   3A,W
04B8:  SUBWF  42,F
04B9:  MOVF   3B,W
04BA:  MOVWF  48
04BB:  BSF    48.7
04BC:  MOVF   3C,W
04BD:  MOVWF  47
04BE:  MOVF   3D,W
04BF:  MOVWF  46
04C0:  CLRF   45
04C1:  BCF    03.0
04C2:  RRF    48,F
04C3:  RRF    47,F
04C4:  RRF    46,F
04C5:  RRF    45,F
04C6:  DECFSZ 42,F
04C7:  GOTO   4C0
04C8:  BTFSS  43.7
04C9:  GOTO   4CD
04CA:  BSF    44.1
04CB:  GOTO   56E
04CC:  BCF    44.1
04CD:  BCF    42.0
04CE:  BSF    44.5
04CF:  MOVLW  41
04D0:  MOVWF  04
04D1:  BCF    03.7
04D2:  GOTO   583
04D3:  BCF    44.5
04D4:  BTFSC  43.7
04D5:  GOTO   4E0
04D6:  BTFSS  42.0
04D7:  GOTO   4EB
04D8:  RRF    48,F
04D9:  RRF    47,F
04DA:  RRF    46,F
04DB:  RRF    45,F
04DC:  INCF   77,F
04DD:  BTFSC  03.2
04DE:  GOTO   569
04DF:  GOTO   4EB
04E0:  BTFSC  48.7
04E1:  GOTO   4EE
04E2:  BCF    03.0
04E3:  RLF    45,F
04E4:  RLF    46,F
04E5:  RLF    47,F
04E6:  RLF    48,F
04E7:  DECF   77,F
04E8:  BTFSC  03.2
04E9:  GOTO   569
04EA:  GOTO   4E0
04EB:  BSF    44.7
04EC:  GOTO   516
04ED:  BCF    44.7
04EE:  MOVF   3F,W
04EF:  MOVWF  43
04F0:  BTFSS  43.7
04F1:  GOTO   4F4
04F2:  BSF    48.7
04F3:  GOTO   562
04F4:  BCF    48.7
04F5:  GOTO   562
04F6:  MOVF   3F,W
04F7:  MOVWF  48
04F8:  BSF    48.7
04F9:  MOVF   40,W
04FA:  MOVWF  47
04FB:  MOVF   41,W
04FC:  MOVWF  46
04FD:  BTFSS  43.7
04FE:  GOTO   503
04FF:  BCF    48.7
0500:  BSF    44.2
0501:  GOTO   56E
0502:  BCF    44.2
0503:  CLRF   45
0504:  BCF    42.0
0505:  MOVLW  3D
0506:  MOVWF  04
0507:  BCF    03.7
0508:  GOTO   583
0509:  BTFSC  43.7
050A:  GOTO   52C
050B:  MOVF   3B,W
050C:  MOVWF  43
050D:  BTFSS  42.0
050E:  GOTO   516
050F:  RRF    48,F
0510:  RRF    47,F
0511:  RRF    46,F
0512:  RRF    45,F
0513:  INCF   77,F
0514:  BTFSC  03.2
0515:  GOTO   569
0516:  BTFSS  45.7
0517:  GOTO   527
0518:  INCF   46,F
0519:  BTFSS  03.2
051A:  GOTO   527
051B:  INCF   47,F
051C:  BTFSS  03.2
051D:  GOTO   527
051E:  INCF   48,F
051F:  BTFSS  03.2
0520:  GOTO   527
0521:  RRF    48,F
0522:  RRF    47,F
0523:  RRF    46,F
0524:  INCF   77,F
0525:  BTFSC  03.2
0526:  GOTO   569
0527:  BTFSC  44.6
0528:  GOTO   4AB
0529:  BTFSC  44.7
052A:  GOTO   4ED
052B:  GOTO   54B
052C:  MOVLW  80
052D:  XORWF  48,F
052E:  BTFSS  48.7
052F:  GOTO   534
0530:  GOTO   56E
0531:  MOVF   3F,W
0532:  MOVWF  43
0533:  GOTO   541
0534:  MOVF   3B,W
0535:  MOVWF  43
0536:  MOVF   48,F
0537:  BTFSS  03.2
0538:  GOTO   541
0539:  MOVF   47,F
053A:  BTFSS  03.2
053B:  GOTO   541
053C:  MOVF   46,F
053D:  BTFSS  03.2
053E:  GOTO   541
053F:  CLRF   77
0540:  GOTO   562
0541:  BTFSC  48.7
0542:  GOTO   54B
0543:  BCF    03.0
0544:  RLF    45,F
0545:  RLF    46,F
0546:  RLF    47,F
0547:  RLF    48,F
0548:  DECFSZ 77,F
0549:  GOTO   541
054A:  GOTO   569
054B:  BTFSS  43.7
054C:  GOTO   54F
054D:  BSF    48.7
054E:  GOTO   562
054F:  BCF    48.7
0550:  GOTO   562
0551:  MOVF   3E,W
0552:  MOVWF  77
0553:  MOVF   3F,W
0554:  MOVWF  48
0555:  MOVF   40,W
0556:  MOVWF  47
0557:  MOVF   41,W
0558:  MOVWF  46
0559:  GOTO   562
055A:  MOVF   3A,W
055B:  MOVWF  77
055C:  MOVF   3B,W
055D:  MOVWF  48
055E:  MOVF   3C,W
055F:  MOVWF  47
0560:  MOVF   3D,W
0561:  MOVWF  46
0562:  MOVF   48,W
0563:  MOVWF  78
0564:  MOVF   47,W
0565:  MOVWF  79
0566:  MOVF   46,W
0567:  MOVWF  7A
0568:  GOTO   5A1
0569:  CLRF   77
056A:  CLRF   78
056B:  CLRF   79
056C:  CLRF   7A
056D:  GOTO   5A1
056E:  CLRF   45
056F:  COMF   46,F
0570:  COMF   47,F
0571:  COMF   48,F
0572:  COMF   45,F
0573:  INCF   45,F
0574:  BTFSS  03.2
0575:  GOTO   57C
0576:  INCF   46,F
0577:  BTFSS  03.2
0578:  GOTO   57C
0579:  INCF   47,F
057A:  BTFSC  03.2
057B:  INCF   48,F
057C:  BTFSC  44.0
057D:  GOTO   48A
057E:  BTFSC  44.1
057F:  GOTO   4CC
0580:  BTFSC  44.2
0581:  GOTO   502
0582:  GOTO   531
0583:  MOVF   00,W
0584:  ADDWF  46,F
0585:  BTFSS  03.0
0586:  GOTO   58D
0587:  INCF   47,F
0588:  BTFSS  03.2
0589:  GOTO   58D
058A:  INCF   48,F
058B:  BTFSC  03.2
058C:  BSF    42.0
058D:  DECF   04,F
058E:  MOVF   00,W
058F:  ADDWF  47,F
0590:  BTFSS  03.0
0591:  GOTO   595
0592:  INCF   48,F
0593:  BTFSC  03.2
0594:  BSF    42.0
0595:  DECF   04,F
0596:  MOVF   00,W
0597:  BTFSS  00.7
0598:  XORLW  80
0599:  ADDWF  48,F
059A:  BTFSC  03.0
059B:  BSF    42.0
059C:  BTFSC  44.4
059D:  GOTO   491
059E:  BTFSC  44.5
059F:  GOTO   4D3
05A0:  GOTO   509
*
0603:  MOVLW  8E
0604:  MOVWF  77
0605:  MOVF   2A,W
0606:  SUBWF  77,F
0607:  MOVF   2B,W
0608:  MOVWF  79
0609:  MOVF   2C,W
060A:  MOVWF  78
060B:  BSF    79.7
060C:  MOVF   77,F
060D:  BTFSC  03.2
060E:  GOTO   61A
060F:  BCF    03.0
0610:  MOVF   79,F
0611:  BTFSS  03.2
0612:  GOTO   616
0613:  MOVF   78,F
0614:  BTFSC  03.2
0615:  GOTO   61A
0616:  RRF    79,F
0617:  RRF    78,F
0618:  DECFSZ 77,F
0619:  GOTO   60F
061A:  BTFSS  2B.7
061B:  GOTO   621
061C:  COMF   78,F
061D:  COMF   79,F
061E:  INCF   78,F
061F:  BTFSC  03.2
0620:  INCF   79,F
....................  
.................... #list 
....................  
.................... #device ICD=true 
.................... #device ADC=10 
....................   
.................... #FUSES NOBROWNOUT               //No brownout reset 
.................... #FUSES NOLVP                    //No low voltage prgming, B3(PIC16) or B5(PIC18) used for I/O 
....................   
.................... #use delay(internal=8000000,clock_out) 
*
039E:  MOVLW  2A
039F:  MOVWF  04
03A0:  BCF    03.7
03A1:  MOVF   00,W
03A2:  BTFSC  03.2
03A3:  GOTO   3B1
03A4:  MOVLW  02
03A5:  MOVWF  78
03A6:  CLRF   77
03A7:  DECFSZ 77,F
03A8:  GOTO   3A7
03A9:  DECFSZ 78,F
03AA:  GOTO   3A6
03AB:  MOVLW  97
03AC:  MOVWF  77
03AD:  DECFSZ 77,F
03AE:  GOTO   3AD
03AF:  DECFSZ 00,F
03B0:  GOTO   3A4
....................   
.................... //#use rs232( baud=9600, parity=N, xmit=PIN_C6, rcv=PIN_C7, bits=8, ERRORS) 
....................   
.................... #use RS232 (DEBUGGER) 
*
0188:  BSF    03.5
0189:  BCF    06.3
018A:  BCF    03.5
018B:  BCF    06.3
018C:  MOVLW  08
018D:  MOVWF  78
018E:  GOTO   18F
018F:  NOP
0190:  BSF    78.7
0191:  GOTO   1A0
0192:  BCF    78.7
0193:  RRF    3D,F
0194:  BTFSC  03.0
0195:  BSF    06.3
0196:  BTFSS  03.0
0197:  BCF    06.3
0198:  BSF    78.6
0199:  GOTO   1A0
019A:  BCF    78.6
019B:  DECFSZ 78,F
019C:  GOTO   193
019D:  GOTO   19E
019E:  NOP
019F:  BSF    06.3
01A0:  MOVLW  01
01A1:  MOVWF  77
01A2:  CLRF   04
01A3:  DECFSZ 04,F
01A4:  GOTO   1A3
01A5:  DECFSZ 77,F
01A6:  GOTO   1A2
01A7:  MOVLW  0E
01A8:  MOVWF  04
01A9:  DECFSZ 04,F
01AA:  GOTO   1A9
01AB:  NOP
01AC:  BTFSC  78.7
01AD:  GOTO   192
01AE:  BTFSC  78.6
01AF:  GOTO   19A
01B0:  RETURN
....................   
.................... //#use  I2C(master, sda=PIN_C4, scl= PIN_C3) 
....................  
....................  
....................  
.................... /*Declarations*/ 
.................... #BYTE portc = 7      // Port used to control motor 
.................... BYTE const POSITIONS[4] = { 0b0101, 0b1001, 0b1010, 0b0110 }; 
.................... unsigned int8 iCurrentPosition = 0; /* This variable keeps track of the current position */ 
.................... unsigned int32 iDelay = 5000; // delay default 5ms 
....................  
.................... //////////////////////////////////////////////////////////////////// 
....................  
.................... #define CHANNEL_LONG_RANGE  4 
.................... #define CHANNEL_SHORT_RANGE 6 
....................  
.................... float rescaleLongRangeSensor(unsigned int16 adcValue) 
*
03DE:  CLRF   35
03DF:  CLRF   34
03E0:  CLRF   33
03E1:  CLRF   32
.................... { 
....................   float rescaledValue = 0.0; 
....................    
....................   if(adcValue >= 1000) 
03E2:  MOVF   31,W
03E3:  SUBLW  02
03E4:  BTFSC  03.0
03E5:  GOTO   3F2
03E6:  XORLW  FF
03E7:  BTFSS  03.2
03E8:  GOTO   3ED
03E9:  MOVF   30,W
03EA:  SUBLW  E7
03EB:  BTFSC  03.0
03EC:  GOTO   3F2
....................   { 
....................       rescaledValue = 0.0; 
03ED:  CLRF   35
03EE:  CLRF   34
03EF:  CLRF   33
03F0:  CLRF   32
....................   } 
03F1:  GOTO   5B8
....................   else if(adcValue <= 573) 
03F2:  MOVF   31,W
03F3:  SUBLW  02
03F4:  BTFSS  03.0
03F5:  GOTO   403
03F6:  BTFSS  03.2
03F7:  GOTO   3FC
03F8:  MOVF   30,W
03F9:  SUBLW  3D
03FA:  BTFSS  03.0
03FB:  GOTO   403
....................   { 
....................       rescaledValue = 5.0; 
03FC:  CLRF   35
03FD:  CLRF   34
03FE:  MOVLW  20
03FF:  MOVWF  33
0400:  MOVLW  81
0401:  MOVWF  32
....................   } 
0402:  GOTO   5B8
....................   else 
....................   { 
....................       rescaledValue = 122.0f / (( 2.5f * ((float) adcValue) ) / 1024f - 1.28f); 
0403:  MOVF   31,W
0404:  MOVWF  37
0405:  MOVF   30,W
0406:  MOVWF  36
*
0423:  CLRF   40
0424:  CLRF   3F
0425:  MOVLW  20
0426:  MOVWF  3E
0427:  MOVLW  80
0428:  MOVWF  3D
0429:  MOVF   7A,W
042A:  MOVWF  44
042B:  MOVF   79,W
042C:  MOVWF  43
042D:  MOVF   78,W
042E:  MOVWF  42
042F:  MOVF   77,W
0430:  MOVWF  41
0431:  CALL   049
0432:  MOVF   7A,W
0433:  MOVWF  39
0434:  MOVF   79,W
0435:  MOVWF  38
0436:  MOVF   78,W
0437:  MOVWF  37
0438:  MOVF   77,W
0439:  MOVWF  36
043A:  MOVF   39,W
043B:  MOVWF  3D
043C:  MOVF   38,W
043D:  MOVWF  3C
043E:  MOVF   37,W
043F:  MOVWF  3B
0440:  MOVF   36,W
0441:  MOVWF  3A
0442:  CLRF   41
0443:  CLRF   40
0444:  CLRF   3F
0445:  MOVLW  89
0446:  MOVWF  3E
0447:  CALL   0BE
0448:  MOVF   7A,W
0449:  MOVWF  39
044A:  MOVF   79,W
044B:  MOVWF  38
044C:  MOVF   78,W
044D:  MOVWF  37
044E:  MOVF   77,W
044F:  MOVWF  36
0450:  BSF    03.1
0451:  MOVF   39,W
0452:  MOVWF  3D
0453:  MOVF   38,W
0454:  MOVWF  3C
0455:  MOVF   37,W
0456:  MOVWF  3B
0457:  MOVF   36,W
0458:  MOVWF  3A
0459:  MOVLW  0A
045A:  MOVWF  41
045B:  MOVLW  D7
045C:  MOVWF  40
045D:  MOVLW  23
045E:  MOVWF  3F
045F:  MOVLW  7F
0460:  MOVWF  3E
*
05A1:  CLRF   3D
05A2:  CLRF   3C
05A3:  MOVLW  74
05A4:  MOVWF  3B
05A5:  MOVLW  85
05A6:  MOVWF  3A
05A7:  MOVF   7A,W
05A8:  MOVWF  41
05A9:  MOVF   79,W
05AA:  MOVWF  40
05AB:  MOVF   78,W
05AC:  MOVWF  3F
05AD:  MOVF   77,W
05AE:  MOVWF  3E
05AF:  CALL   0BE
05B0:  MOVF   7A,W
05B1:  MOVWF  35
05B2:  MOVF   79,W
05B3:  MOVWF  34
05B4:  MOVF   78,W
05B5:  MOVWF  33
05B6:  MOVF   77,W
05B7:  MOVWF  32
....................   }   
....................   return rescaledValue; 
05B8:  MOVF   32,W
05B9:  MOVWF  77
05BA:  MOVF   33,W
05BB:  MOVWF  78
05BC:  MOVF   34,W
05BD:  MOVWF  79
05BE:  MOVF   35,W
05BF:  MOVWF  7A
.................... } 
....................  
.................... unsigned int16 readInternalAdc(unsigned int8 channel) 
.................... { 
....................   set_adc_channel(channel); 
*
03B3:  RLF    30,W
03B4:  MOVWF  77
03B5:  RLF    77,F
03B6:  MOVLW  FC
03B7:  ANDWF  77,F
03B8:  MOVF   1F,W
03B9:  ANDLW  C3
03BA:  IORWF  77,W
03BB:  MOVWF  1F
....................   delay_us(20); 
03BC:  MOVLW  0C
03BD:  MOVWF  77
03BE:  DECFSZ 77,F
03BF:  GOTO   3BE
03C0:  GOTO   3C1
03C1:  NOP
....................  
....................   read_adc(ADC_START_ONLY); // start the ADC for conversion 
03C2:  BSF    1F.1
....................    
....................   int1 done = adc_done();   // Poll on ADC result 
03C3:  BCF    31.0
03C4:  BTFSS  1F.1
03C5:  BSF    31.0
....................   while(!done)  
03C6:  BTFSC  31.0
03C7:  GOTO   3CC
....................   { 
....................     // wait until measurement is ready 
....................     done = adc_done(); 
03C8:  BCF    31.0
03C9:  BTFSS  1F.1
03CA:  BSF    31.0
03CB:  GOTO   3C6
....................   } 
....................    
....................   // read conversion result 
....................   return((int16)read_adc(ADC_READ_ONLY)); 
03CC:  BTFSC  1F.1
03CD:  GOTO   3CC
03CE:  MOVF   1E,W
03CF:  MOVWF  7A
03D0:  BSF    03.5
03D1:  MOVF   1E,W
03D2:  MOVWF  78
03D3:  MOVF   7A,W
03D4:  MOVWF  79
.................... } 
....................  
.................... //unsigned int16 readLongRangeSensor() 
.................... float readLongRangeSensor() 
.................... { 
....................   unsigned int16 iSensorRead; 
....................   float rescaledValue; 
....................   iSensorRead = readInternalAdc(CHANNEL_LONG_RANGE); 
*
03B1:  MOVLW  04
03B2:  MOVWF  30
*
03D5:  MOVF   79,W
03D6:  BCF    03.5
03D7:  MOVWF  2B
03D8:  MOVF   78,W
03D9:  MOVWF  2A
....................   rescaledValue = rescaleLongRangeSensor(iSensorRead); 
03DA:  MOVF   2B,W
03DB:  MOVWF  31
03DC:  MOVF   2A,W
03DD:  MOVWF  30
*
05C0:  MOVF   7A,W
05C1:  MOVWF  2F
05C2:  MOVF   79,W
05C3:  MOVWF  2E
05C4:  MOVF   78,W
05C5:  MOVWF  2D
05C6:  MOVF   77,W
05C7:  MOVWF  2C
....................   printf("Original value: %Lu   Rescaled value: %f\n", iSensorRead, rescaledValue); 
05C8:  MOVLW  0C
05C9:  BSF    03.6
05CA:  MOVWF  0D
05CB:  MOVLW  00
05CC:  MOVWF  0F
05CD:  BCF    03.0
05CE:  MOVLW  10
05CF:  BCF    03.6
05D0:  MOVWF  30
05D1:  CALL   1B1
05D2:  MOVLW  10
05D3:  MOVWF  04
05D4:  MOVF   2B,W
05D5:  MOVWF  31
05D6:  MOVF   2A,W
05D7:  MOVWF  30
05D8:  CALL   208
05D9:  MOVLW  15
05DA:  BSF    03.6
05DB:  MOVWF  0D
05DC:  MOVLW  00
05DD:  MOVWF  0F
05DE:  BSF    03.0
05DF:  MOVLW  13
05E0:  BCF    03.6
05E1:  MOVWF  30
05E2:  CALL   1B1
05E3:  MOVLW  89
05E4:  MOVWF  04
05E5:  MOVF   2F,W
05E6:  MOVWF  33
05E7:  MOVF   2E,W
05E8:  MOVWF  32
05E9:  MOVF   2D,W
05EA:  MOVWF  31
05EB:  MOVF   2C,W
05EC:  MOVWF  30
05ED:  MOVLW  02
05EE:  MOVWF  34
05EF:  GOTO   2BA
05F0:  MOVLW  0A
05F1:  MOVWF  3D
05F2:  CALL   188
....................   return rescaledValue; 
05F3:  MOVF   2C,W
05F4:  MOVWF  77
05F5:  MOVF   2D,W
05F6:  MOVWF  78
05F7:  MOVF   2E,W
05F8:  MOVWF  79
05F9:  MOVF   2F,W
05FA:  MOVWF  7A
.................... } 
....................  
.................... unsigned int16 readShortRangeSensor() 
.................... { 
....................   unsigned int16 iSensorRead; 
....................   iSensorRead = readInternalAdc(CHANNEL_SHORT_RANGE); 
....................   /* Add conversion formulas here */ 
....................   return iSensorRead; 
.................... } 
....................  
.................... void init() 
.................... { 
.................... //  setup_oscillator(OSC_8MHZ,2); 
....................   
....................   /* Setup the  ADC to 2.5V */ 
....................   //setup_vref(VREF_LOW | 0x0C); 
....................    setup_vref(0xEC); 
*
0021:  MOVLW  EC
0022:  BSF    03.5
0023:  MOVWF  17
....................   setup_adc(ADC_CLOCK_DIV_32); 
0024:  BCF    03.5
0025:  BCF    1F.6
0026:  BSF    1F.7
0027:  BSF    03.5
0028:  BSF    1F.7
0029:  BCF    03.5
002A:  BSF    1F.0
....................   setup_adc_ports (sAN4 | sAN6 | VSS_VREF); 
002B:  BSF    03.5
002C:  BSF    03.6
002D:  MOVF   09,W
002E:  ANDLW  C0
002F:  MOVWF  09
0030:  BCF    03.6
0031:  BSF    1F.4
0032:  BCF    1F.5
0033:  MOVLW  50
0034:  BSF    03.6
0035:  MOVWF  08
....................     
....................   /* Initially start with channel 6 */ 
....................   set_adc_channel(6); 
0036:  MOVLW  18
0037:  MOVWF  78
0038:  BCF    03.5
0039:  BCF    03.6
003A:  MOVF   1F,W
003B:  ANDLW  C3
003C:  IORWF  78,W
003D:  MOVWF  1F
003E:  BCF    0A.3
003F:  BCF    0A.4
0040:  GOTO   672 (RETURN)
.................... } 
....................  
....................  
.................... //////////////////////////////////////////////////////////////////// 
....................  
....................  
.................... void initStepper() 
.................... { 
....................    set_tris_c(0xF0); 
0041:  MOVLW  F0
0042:  BSF    03.5
0043:  MOVWF  07
0044:  BCF    03.5
0045:  MOVWF  25
0046:  BCF    0A.3
0047:  BCF    0A.4
0048:  GOTO   673 (RETURN)
.................... } 
....................  
....................  
.................... void stepperRotateSingleRight() 
.................... { 
....................      iCurrentPosition = ((iCurrentPosition+1)&3); 
*
0627:  MOVLW  01
0628:  ADDWF  20,W
0629:  ANDLW  03
062A:  MOVWF  20
....................       
....................      /* Set outputs to move the motor */ 
....................      portc = POSITIONS[iCurrentPosition]; 
062B:  MOVF   20,W
062C:  CALL   004
062D:  MOVWF  78
062E:  MOVWF  07
.................... } 
....................  
.................... void stepperRotateSingleLeft() 
.................... { 
....................      if(iCurrentPosition == 0) 
*
0630:  MOVF   20,F
0631:  BTFSS  03.2
0632:  GOTO   636
....................      { 
....................          iCurrentPosition = 3; 
0633:  MOVLW  03
0634:  MOVWF  20
....................      } 
0635:  GOTO   63A
....................      else 
....................      { 
....................          iCurrentPosition = ((iCurrentPosition-1)&3); 
0636:  MOVLW  01
0637:  SUBWF  20,W
0638:  ANDLW  03
0639:  MOVWF  20
....................      } 
....................      portc = POSITIONS[iCurrentPosition]; 
063A:  MOVF   20,W
063B:  CALL   004
063C:  MOVWF  78
063D:  MOVWF  07
.................... } 
....................  
.................... int16 moveMeasure(int measureTime_ms, int rotation) 
.................... { 
....................       delay_ms(measureTime_ms); 
*
039C:  MOVF   26,W
039D:  MOVWF  2A
....................       int16 measurement = readLongRangeSensor(); 
*
05FB:  MOVF   7A,W
05FC:  MOVWF  2D
05FD:  MOVF   79,W
05FE:  MOVWF  2C
05FF:  MOVF   78,W
0600:  MOVWF  2B
0601:  MOVF   77,W
0602:  MOVWF  2A
*
0621:  MOVF   79,W
0622:  MOVWF  29
0623:  MOVF   78,W
0624:  MOVWF  28
....................       if(rotation == TRUE) 
0625:  DECFSZ 27,W
0626:  GOTO   630
....................       { 
....................             stepperRotateSingleRight(); 
....................       } 
*
062F:  GOTO   63E
....................       else    
....................       { 
....................             stepperRotateSingleLeft(); 
....................       }    
....................       return measurement; 
*
063E:  MOVF   28,W
063F:  MOVWF  78
0640:  MOVF   29,W
0641:  MOVWF  79
0642:  BCF    0A.3
0643:  BCF    0A.4
0644:  GOTO   678 (RETURN)
.................... } 
....................  
.................... void stepperRotate180right(int timeDelay_us) 
.................... { 
....................       for(unsigned int8 i = 1; i<=100; i++) 
....................     { 
....................        portc = POSITIONS[((iCurrentPosition + i)&3)]; 
....................       delay_us(timeDelay_us); 
....................     } 
.................... } 
....................  
....................  
.................... void stepperRotate180left(int timeDelay_us) 
.................... { 
....................       for(unsigned int8 i = 1; i<=100; i++) 
....................     { 
....................        if(iCurrentPosition == 0) 
....................        { 
....................            iCurrentPosition = 3; 
....................        } 
....................        else 
....................        { 
....................            iCurrentPosition = ((iCurrentPosition-1)&3); 
....................        } 
....................        portc = POSITIONS[iCurrentPosition]; 
....................           delay_us(timeDelay_us); 
....................     } 
.................... } 
....................  
....................  
....................  
.................... void main() 
0645:  MOVF   03,W
0646:  ANDLW  1F
0647:  MOVWF  03
0648:  MOVLW  71
0649:  BSF    03.5
064A:  MOVWF  0F
064B:  CLRF   10
064C:  MOVF   0F,W
064D:  BCF    06.3
064E:  BCF    03.5
064F:  BSF    06.3
0650:  CLRF   20
0651:  CLRF   24
0652:  CLRF   23
0653:  MOVLW  13
0654:  MOVWF  22
0655:  MOVLW  88
0656:  MOVWF  21
0657:  MOVLW  FF
0658:  MOVWF  25
0659:  BSF    03.5
065A:  BSF    03.6
065B:  MOVF   09,W
065C:  ANDLW  C0
065D:  MOVWF  09
065E:  BCF    03.6
065F:  BCF    1F.4
0660:  BCF    1F.5
0661:  MOVLW  00
0662:  BSF    03.6
0663:  MOVWF  08
0664:  BCF    03.5
0665:  CLRF   07
0666:  CLRF   08
0667:  CLRF   09
0668:  BCF    03.7
.................... { 
....................       setup_oscillator(OSC_8MHZ,2); 
0669:  MOVLW  71
066A:  BSF    03.5
066B:  BCF    03.6
066C:  MOVWF  0F
066D:  MOVLW  02
066E:  MOVWF  10
066F:  MOVF   0F,W
....................        init(); 
0670:  BCF    03.5
0671:  GOTO   021
....................        initStepper(); 
0672:  GOTO   041
....................      while(TRUE) 
....................       { 
....................          printf("%Lu \n", moveMeasure(100, 1));   // delay 100ms rotate right 
0673:  MOVLW  64
0674:  MOVWF  26
0675:  MOVLW  01
0676:  MOVWF  27
0677:  GOTO   39C
0678:  MOVF   79,W
0679:  MOVWF  27
067A:  MOVF   78,W
067B:  MOVWF  26
067C:  MOVLW  10
067D:  MOVWF  04
067E:  MOVF   27,W
067F:  MOVWF  31
0680:  MOVF   26,W
0681:  MOVWF  30
0682:  CALL   208
0683:  MOVLW  20
0684:  MOVWF  3D
0685:  CALL   188
0686:  MOVLW  0A
0687:  MOVWF  3D
0688:  CALL   188
0689:  GOTO   673
....................       } 
.................... } 
068A:  GOTO   68A

Configuration Fuses:
   Word  1: 0CF5   INTRC NOWDT NOPUT MCLR NOPROTECT NOCPD NOBROWNOUT IESO FCMEN NOLVP DEBUG
   Word  2: 3FFF   BORV40 NOWRT

   Some fuses have been forced to be compatible with the ICD debugger.
